
../bin/TwoTask.elf:     file format elf32-littlenios2
../bin/TwoTask.elf
architecture: nios2, flags 0x00000112:
EXEC_P, HAS_SYMS, D_PAGED
start address 0x01080124

Program Header:
    LOAD off    0x00001000 vaddr 0x00800000 paddr 0x00800000 align 2**12
         filesz 0x00000020 memsz 0x00000020 flags r-x
    LOAD off    0x00001020 vaddr 0x00800020 paddr 0x01080000 align 2**12
         filesz 0x00000124 memsz 0x00000124 flags r-x
    LOAD off    0x00002124 vaddr 0x01080124 paddr 0x01080124 align 2**12
         filesz 0x0000b748 memsz 0x0000b748 flags r-x
    LOAD off    0x0000d86c vaddr 0x0108b86c paddr 0x0108d33c align 2**12
         filesz 0x00001ad0 memsz 0x00001ad0 flags rw-
    LOAD off    0x0000fe0c vaddr 0x0108ee0c paddr 0x0108ee0c align 2**12
         filesz 0x00000000 memsz 0x0000a0e0 flags rw-

Sections:
Idx Name          Size      VMA       LMA       File off  Algn
  0 .entry        00000020  00800000  00800000  00001000  2**5
                  CONTENTS, ALLOC, LOAD, READONLY, CODE
  1 .exceptions   00000124  00800020  01080000  00001020  2**2
                  CONTENTS, ALLOC, LOAD, READONLY, CODE
  2 .text         0000b458  01080124  01080124  00002124  2**2
                  CONTENTS, ALLOC, LOAD, READONLY, CODE
  3 .rodata       000002f0  0108b57c  0108b57c  0000d57c  2**2
                  CONTENTS, ALLOC, LOAD, READONLY, DATA
  4 .rwdata       00001ad0  0108b86c  0108d33c  0000d86c  2**2
                  CONTENTS, ALLOC, LOAD, DATA, SMALL_DATA
  5 .bss          0000a0e0  0108ee0c  0108ee0c  0000fe0c  2**2
                  ALLOC, SMALL_DATA
  6 .comment      00000026  00000000  00000000  0000f33c  2**0
                  CONTENTS, READONLY
  7 .debug_aranges 00000c78  00000000  00000000  0000f368  2**3
                  CONTENTS, READONLY, DEBUGGING
  8 .debug_pubnames 00001e3a  00000000  00000000  0000ffe0  2**0
                  CONTENTS, READONLY, DEBUGGING
  9 .debug_info   000255db  00000000  00000000  00011e1a  2**0
                  CONTENTS, READONLY, DEBUGGING
 10 .debug_abbrev 00008921  00000000  00000000  000373f5  2**0
                  CONTENTS, READONLY, DEBUGGING
 11 .debug_line   00016b01  00000000  00000000  0003fd16  2**0
                  CONTENTS, READONLY, DEBUGGING
 12 .debug_frame  00001cd4  00000000  00000000  00056818  2**2
                  CONTENTS, READONLY, DEBUGGING
 13 .debug_str    0000385b  00000000  00000000  000584ec  2**0
                  CONTENTS, READONLY, DEBUGGING
 14 .debug_loc    00009e30  00000000  00000000  0005bd47  2**0
                  CONTENTS, READONLY, DEBUGGING
 15 .debug_alt_sim_info 00000010  00000000  00000000  00065b78  2**2
                  CONTENTS, READONLY, DEBUGGING
 16 .debug_ranges 00000aa8  00000000  00000000  00065b88  2**3
                  CONTENTS, READONLY, DEBUGGING
 17 .thread_model 00000006  00000000  00000000  0006a8e7  2**0
                  CONTENTS, READONLY
 18 .cpu          0000001a  00000000  00000000  0006a8ed  2**0
                  CONTENTS, READONLY
 19 .qsys         00000001  00000000  00000000  0006a907  2**0
                  CONTENTS, READONLY
 20 .simulation_enabled 00000001  00000000  00000000  0006a908  2**0
                  CONTENTS, READONLY
 21 .sysid_hash   00000004  00000000  00000000  0006a909  2**0
                  CONTENTS, READONLY
 22 .sysid_base   00000004  00000000  00000000  0006a90d  2**0
                  CONTENTS, READONLY
 23 .sysid_time   00000004  00000000  00000000  0006a911  2**0
                  CONTENTS, READONLY
 24 .stderr_dev   0000000b  00000000  00000000  0006a915  2**0
                  CONTENTS, READONLY
 25 .stdin_dev    0000000b  00000000  00000000  0006a920  2**0
                  CONTENTS, READONLY
 26 .stdout_dev   0000000b  00000000  00000000  0006a92b  2**0
                  CONTENTS, READONLY
 27 .sopc_system_name 00000015  00000000  00000000  0006a936  2**0
                  CONTENTS, READONLY
 28 .sopcinfo     00071f3c  00000000  00000000  0006a94b  2**0
                  CONTENTS, READONLY
SYMBOL TABLE:
00800000 l    d  .entry	00000000 .entry
00800020 l    d  .exceptions	00000000 .exceptions
01080124 l    d  .text	00000000 .text
0108b57c l    d  .rodata	00000000 .rodata
0108b86c l    d  .rwdata	00000000 .rwdata
0108ee0c l    d  .bss	00000000 .bss
00000000 l    d  .comment	00000000 .comment
00000000 l    d  .debug_aranges	00000000 .debug_aranges
00000000 l    d  .debug_pubnames	00000000 .debug_pubnames
00000000 l    d  .debug_info	00000000 .debug_info
00000000 l    d  .debug_abbrev	00000000 .debug_abbrev
00000000 l    d  .debug_line	00000000 .debug_line
00000000 l    d  .debug_frame	00000000 .debug_frame
00000000 l    d  .debug_str	00000000 .debug_str
00000000 l    d  .debug_loc	00000000 .debug_loc
00000000 l    d  .debug_alt_sim_info	00000000 .debug_alt_sim_info
00000000 l    d  .debug_ranges	00000000 .debug_ranges
0108015c l       .text	00000000 alt_after_alt_main
00000000 l    df *ABS*	00000000 alt_irq_handler.c
00000000 l    df *ABS*	00000000 TwoTasks.c
00000000 l    df *ABS*	00000000 impure.c
0108b86c l     O .rwdata	00000400 impure_data
00000000 l    df *ABS*	00000000 putc.c
00000000 l    df *ABS*	00000000 puts.c
00000000 l    df *ABS*	00000000 strlen.c
00000000 l    df *ABS*	00000000 wbuf.c
00000000 l    df *ABS*	00000000 wsetup.c
00000000 l    df *ABS*	00000000 fflush.c
00000000 l    df *ABS*	00000000 findfp.c
01080bf8 l     F .text	00000058 std
01080d04 l     F .text	00000008 __fp_lock
01080d0c l     F .text	00000008 __fp_unlock
00000000 l    df *ABS*	00000000 mallocr.c
00000000 l    df *ABS*	00000000 fvwrite.c
00000000 l    df *ABS*	00000000 fwalk.c
00000000 l    df *ABS*	00000000 makebuf.c
00000000 l    df *ABS*	00000000 mallocr.c
00000000 l    df *ABS*	00000000 memchr.c
00000000 l    df *ABS*	00000000 memcpy.c
00000000 l    df *ABS*	00000000 memmove.c
00000000 l    df *ABS*	00000000 memset.c
00000000 l    df *ABS*	00000000 mallocr.c
00000000 l    df *ABS*	00000000 sbrkr.c
00000000 l    df *ABS*	00000000 stdio.c
00000000 l    df *ABS*	00000000 writer.c
00000000 l    df *ABS*	00000000 closer.c
00000000 l    df *ABS*	00000000 fclose.c
00000000 l    df *ABS*	00000000 fstatr.c
00000000 l    df *ABS*	00000000 int_errno.c
00000000 l    df *ABS*	00000000 isattyr.c
00000000 l    df *ABS*	00000000 lseekr.c
00000000 l    df *ABS*	00000000 readr.c
00000000 l    df *ABS*	00000000 lib2-mul.c
00000000 l    df *ABS*	00000000 alt_close.c
010830e0 l     F .text	00000020 alt_get_errno
00000000 l    df *ABS*	00000000 alt_dev.c
0108319c l     F .text	00000008 alt_dev_null_write
00000000 l    df *ABS*	00000000 alt_errno.c
00000000 l    df *ABS*	00000000 alt_fstat.c
00000000 l    df *ABS*	00000000 alt_isatty.c
00000000 l    df *ABS*	00000000 alt_load.c
010832d4 l     F .text	00000020 alt_load_section
00000000 l    df *ABS*	00000000 alt_lseek.c
00000000 l    df *ABS*	00000000 alt_main.c
00000000 l    df *ABS*	00000000 alt_read.c
010834c0 l     F .text	00000020 alt_get_errno
00000000 l    df *ABS*	00000000 alt_release_fd.c
00000000 l    df *ABS*	00000000 alt_sbrk.c
0108d2b0 l     O .rwdata	00000004 heap_end
00000000 l    df *ABS*	00000000 alt_write.c
01083644 l     F .text	00000020 alt_get_errno
00000000 l    df *ABS*	00000000 alt_env_lock.c
0108ee38 l     O .bss	00000004 locks
0108d2b4 l     O .rwdata	00000004 lockid
00000000 l    df *ABS*	00000000 alt_malloc_lock.c
0108ee40 l     O .bss	00000004 locks
0108d2b8 l     O .rwdata	00000004 lockid
00000000 l    df *ABS*	00000000 os_core.c
00000000 l    df *ABS*	00000000 os_dbg.c
00000000 l    df *ABS*	00000000 os_flag.c
010849ec l     F .text	000000b8 OS_FlagBlock
01084ae0 l     F .text	00000090 OS_FlagTaskRdy
00000000 l    df *ABS*	00000000 os_mem.c
00000000 l    df *ABS*	00000000 os_q.c
00000000 l    df *ABS*	00000000 os_sem.c
00000000 l    df *ABS*	00000000 os_task.c
00000000 l    df *ABS*	00000000 os_time.c
00000000 l    df *ABS*	00000000 os_tmr.c
01087b90 l     F .text	00000068 OSTmr_Free
01087bf8 l     F .text	000000a0 OSTmr_Link
01087c98 l     F .text	00000064 OSTmr_Unlink
01087e98 l     F .text	000000c0 OSTmr_Task
01087e5c l     F .text	0000002c OSTmr_Lock
01087e88 l     F .text	00000010 OSTmr_Unlock
00000000 l    df *ABS*	00000000 alt_sys_init.c
0108c21c l     O .rwdata	0000106c jtag_uart_0
00000000 l    df *ABS*	00000000 altera_avalon_jtag_uart_fd.c
00000000 l    df *ABS*	00000000 altera_avalon_jtag_uart_init.c
01088824 l     F .text	00000088 altera_avalon_jtag_uart_timeout
01088974 l     F .text	0000016c altera_avalon_jtag_uart_irq
00000000 l    df *ABS*	00000000 altera_avalon_jtag_uart_ioctl.c
00000000 l    df *ABS*	00000000 altera_avalon_jtag_uart_read.c
00000000 l    df *ABS*	00000000 altera_avalon_jtag_uart_write.c
00000000 l    df *ABS*	00000000 altera_avalon_timer_sc.c
01088f10 l     F .text	0000003c alt_avalon_timer_sc_irq
00000000 l    df *ABS*	00000000 alt_alarm_start.c
00000000 l    df *ABS*	00000000 alt_dcache_flush_all.c
00000000 l    df *ABS*	00000000 alt_dev_llist_insert.c
00000000 l    df *ABS*	00000000 alt_do_ctors.c
00000000 l    df *ABS*	00000000 alt_do_dtors.c
00000000 l    df *ABS*	00000000 alt_icache_flush_all.c
00000000 l    df *ABS*	00000000 alt_iic.c
00000000 l    df *ABS*	00000000 alt_iic_isr_register.c
00000000 l    df *ABS*	00000000 alt_io_redirect.c
010891dc l     F .text	00000088 alt_open_fd
00000000 l    df *ABS*	00000000 alt_irq_vars.c
00000000 l    df *ABS*	00000000 alt_open.c
00000000 l    df *ABS*	00000000 alt_tick.c
00000000 l    df *ABS*	00000000 altera_nios2_qsys_irq.c
00000040 l       *ABS*	00000000 OSCtxSw_SWITCH_PC
00000000 l    df *ABS*	00000000 os_cpu_c.c
0108eebc l     O .bss	00000002 OSTmrCtr
00000014 l       *ABS*	00000000 OSTCBNext_OFFSET
00000032 l       *ABS*	00000000 OSTCBPrio_OFFSET
00000000 l       *ABS*	00000000 OSTCBStkPtr_OFFSET
00000000 l    df *ABS*	00000000 alt_find_dev.c
00000000 l    df *ABS*	00000000 alt_find_file.c
00000000 l    df *ABS*	00000000 alt_get_fd.c
00000000 l    df *ABS*	00000000 atexit.c
00000000 l    df *ABS*	00000000 exit.c
00000000 l    df *ABS*	00000000 memcmp.c
00000000 l    df *ABS*	00000000 __atexit.c
00000000 l    df *ABS*	00000000 __call_atexit.c
01089bf0 l     F .text	00000004 register_fini
00000000 l    df *ABS*	00000000 libgcc2.c
00000000 l    df *ABS*	00000000 dp-bit.c
01089e48 l     F .text	00000410 _fpadd_parts
00000000 l    df *ABS*	00000000 dp-bit.c
00000000 l    df *ABS*	00000000 dp-bit.c
00000000 l    df *ABS*	00000000 dp-bit.c
00000000 l    df *ABS*	00000000 dp-bit.c
00000000 l    df *ABS*	00000000 dp-bit.c
00000000 l    df *ABS*	00000000 dp-bit.c
00000000 l    df *ABS*	00000000 dp-bit.c
00000000 l    df *ABS*	00000000 lib2-divmod.c
0108ad54 l     F .text	0000007c udivmodsi4
00000000 l    df *ABS*	00000000 libgcc2.c
00000000 l    df *ABS*	00000000 libgcc2.c
00000000 l    df *ABS*	00000000 dp-bit.c
00000000 l    df *ABS*	00000000 dp-bit.c
00000000 l    df *ABS*	00000000 dp-bit.c
00000000 l    df *ABS*	00000000 libgcc2.c
00000000 l    df *ABS*	00000000 alt_exit.c
0108d306 g     O .rwdata	00000002 OSTaskNameSize
01082f48 g     F .text	00000070 _isatty_r
01083418 g     F .text	000000a8 alt_main
01080618 g     F .text	000000a0 _puts_r
0108ee48 g     O .bss	00000004 OSTmrFreeList
01098c5c g     O .bss	00000100 alt_irq
01082fb8 g     F .text	00000078 _lseek_r
01085648 g     F .text	00000068 OS_MemInit
0108d33c g       *ABS*	00000000 __flash_rwdata_start
01087818 g     F .text	00000024 OSTimeSet
01094ee8 g     O .bss	00000010 OSTmrWheelTbl
01084084 g     F .text	00000358 OSEventPendMulti
01098eec g       *ABS*	00000000 __alt_heap_start
01089624 g     F .text	00000004 OSTaskCreateHook
0108eee8 g     O .bss	00002000 task1_stk
0108d2de g     O .rwdata	00000002 OSMboxEn
010843dc g     F .text	0000003c OSIntEnter
01080000 g       *ABS*	00000000 __alt_mem_sram
01082b84 g     F .text	00000068 __sseek
01080c60 g     F .text	000000a4 __sinit
01080740 g     F .text	00000130 __swbuf_r
0108d2ee g     O .rwdata	00000002 OSQEn
01080d60 g     F .text	0000009c __sfmoreglue
010837c0 g     F .text	0000005c __malloc_unlock
01089630 g     F .text	00000004 OSTaskStatHook
0108ee4c g     O .bss	00000001 OSLockNesting
0108ee50 g     O .bss	00000004 OSTmrSemSignal
0108d32c g     O .rwdata	00000002 OSDataSize
0108ee54 g     O .bss	00000001 OSRunning
010823a0 g     F .text	000000e0 memmove
0108ee0c g     O .bss	00000004 Sem1
01089634 g     F .text	00000008 OSInitHookBegin
0108d324 g     O .rwdata	00000002 OSTmrSize
01080d50 g     F .text	00000010 _cleanup
0108ee58 g     O .bss	00000004 OSIdleCtr
01089600 g       .text	00000000 OSStartTsk
00000000  w      *UND*	00000000 __errno
010846d4 g     F .text	00000184 OS_TCBInit
00800000 g     F .entry	0000000c __reset
0108ee5c g     O .bss	00000002 OSTmrUsed
0108d32a g     O .rwdata	00000002 OSTmrWheelTblSize
01080000 g       *ABS*	00000000 __flash_exceptions_start
0108d2ca g     O .rwdata	00000002 OSEventSize
0108ee5e g     O .bss	00000001 OSPrioHighRdy
01082ed4 g     F .text	00000074 _fstat_r
01089628 g     F .text	00000004 OSTaskDelHook
0108ee24 g     O .bss	00000004 errno
010895e0 g       .text	00000000 OSStartHighRdy
01086e44 g     F .text	00000178 OSTaskCreateExt
01085428 g     F .text	0000002c OSFlagPendGetFlagsRdy
0108d30a g     O .rwdata	00000002 OSTaskStatStkSize
01084c3c g     F .text	00000170 OSFlagAccept
01085e08 g     F .text	00000050 OSQFlush
01085ae8 g     F .text	0000009c OSQAccept
0108ee30 g     O .bss	00000004 alt_argv
01095288 g       *ABS*	00000000 _gp
01086d38 g     F .text	0000010c OSTaskCreate
01086a9c g     F .text	0000029c OSTaskChangePrio
0108ee44 g     O .bss	00000004 alt_heapsem
010849e8 g     F .text	00000004 OSDebugInit
01086fbc g     F .text	0000024c OSTaskDel
0108c09c g     O .rwdata	00000180 alt_fd_list
01094ef8 g     O .bss	00000370 OSFlagTbl
01083a00 g     F .text	0000004c OS_EventTaskRemove
0108984c g     F .text	00000070 alt_find_dev
01082300 g     F .text	000000a0 memcpy
0108d2f4 g     O .rwdata	00000002 OSRdyTblSize
01095268 g     O .bss	00000340 OSTmrTbl
01080d44 g     F .text	0000000c _cleanup_r
0108a9f0 g     F .text	000000f8 __floatsidf
01089264 g     F .text	0000008c alt_io_redirect
0108b57c g       *ABS*	00000000 __DTOR_END__
010806b8 g     F .text	00000014 puts
01083fcc g     F .text	000000b8 OSEventNameGet
0108d2d8 g     O .rwdata	00000002 OSFlagMax
01084858 g     F .text	000000d4 OSIntExit
0108d312 g     O .rwdata	00000002 OSTCBSize
0108ee5f g     O .bss	00000001 OSPrioCur
01088b5c g     F .text	000001ac altera_avalon_jtag_uart_read
00000000  w      *UND*	00000000 malloc
0108ae90 g     F .text	00000008 __udivsi3
01083240 g     F .text	00000094 isatty
0108d2f8 g     O .rwdata	00000002 OSStkWidth
0108d2ec g     O .rwdata	00000002 OSPtrSize
0108d2cc g     O .rwdata	00000002 OSEventTblSize
01089da4 g     F .text	000000a4 __fixunsdfsi
01089554 g       .text	00000000 OSCtxSw
0108ee18 g     O .bss	00000004 __malloc_top_pad
0108ee60 g     O .bss	00000004 OSTCBList
01088474 g     F .text	00000028 OSTmrSignal
0108ee28 g     O .bss	00000004 alt_fd_list_lock
0108132c g     F .text	0000049c __sfvwrite_r
010955a8 g     O .bss	00000c30 OSMemTbl
0108ee64 g     O .bss	00000001 OSTickStepState
01082b0c g     F .text	00000070 _sbrk_r
0108d2f0 g     O .rwdata	00000002 OSQMax
010961d8 g     O .bss	00000800 OSTaskStatStk
01085850 g     F .text	0000009c OSMemNameGet
0108d2d0 g     O .rwdata	00000002 OSFlagEn
01083030 g     F .text	00000078 _read_r
0108d316 g     O .rwdata	00000002 OSTimeTickHookEn
01086100 g     F .text	000000bc OSQPost
01084aa4 g     F .text	0000003c OS_FlagUnlink
0108d2a8 g     O .rwdata	00000004 alt_max_fd
01083bd4 g     F .text	00000024 OS_MemCopy
0108b358 g     F .text	00000138 __unpack_d
01083cc8 g     F .text	000000b8 OS_Sched
01082db0 g     F .text	00000110 _fclose_r
010857e4 g     F .text	0000006c OSMemGet
010873c4 g     F .text	0000011c OSTaskNameSet
01080bc4 g     F .text	00000034 fflush
0108ee1c g     O .bss	00000004 __malloc_max_sbrked_mem
0108ee68 g     O .bss	00000004 OSCtxSwCtr
01089648 g     F .text	00000058 OSTimeTickHook
0108d2da g     O .rwdata	00000002 OSFlagNameSize
01083a4c g     F .text	0000005c OS_EventTaskRemoveMulti
0108a2d8 g     F .text	00000074 __adddf3
01083960 g     F .text	000000a0 OS_EventTaskWaitMulti
0108d2f2 g     O .rwdata	00000002 OSQSize
01083360 g     F .text	000000b8 lseek
0108664c g     F .text	00000168 OSSemPend
0108d28c g     O .rwdata	00000004 _global_impure_ptr
01082518 g     F .text	000005f4 _realloc_r
0108d2dc g     O .rwdata	00000002 OSLowestPrio
01098eec g       *ABS*	00000000 __bss_end
01089170 g     F .text	0000006c alt_iic_isr_register
01089644 g     F .text	00000004 OSTCBInitHook
0108d322 g     O .rwdata	00000002 OSTmrCfgTicksPerSec
010894a0 g     F .text	000000ac alt_tick
0108d2c4 g     O .rwdata	00000002 OSEventEn
0108d31e g     O .rwdata	00000002 OSTmrCfgNameSize
0108abc0 g     F .text	00000194 __floatunsidf
01080d2c g     F .text	00000018 __fp_lock_all
010890d4 g     F .text	00000018 alt_ic_irq_enabled
0108ee6c g     O .bss	00000002 OSTmrFree
01084b70 g     F .text	00000070 OS_FlagInit
0108946c g     F .text	00000034 alt_alarm_stop
01088378 g     F .text	000000fc OSTmrDel
0108d300 g     O .rwdata	00000002 OSTaskIdleStkSize
0108030c g     F .text	00000048 statisticTask
0108eeb0 g     O .bss	00000004 alt_irq_active
01086428 g     F .text	00000044 OSSemAccept
010859a8 g     F .text	00000058 OSMemPut
01085714 g     F .text	000000d0 OSMemCreate
0108ee70 g     O .bss	00000004 OSIdleCtrMax
008000ec g     F .exceptions	00000058 alt_irq_handler
0108c074 g     O .rwdata	00000028 alt_dev_null
0108d314 g     O .rwdata	00000002 OSTicksPerSec
01089554 g       .text	00000000 OSIntCtxSw
01088fdc g     F .text	00000004 alt_dcache_flush_all
0108aae8 g     F .text	000000d8 __fixdfsi
01090ee8 g     O .bss	00002000 stat_stk
0108ee74 g     O .bss	00000004 OSTCBFreeList
0108d33c g       *ABS*	00000000 __ram_rwdata_end
010867b4 g     F .text	000000ec OSSemPendAbort
02180000 g       *ABS*	00000000 __alt_mem_onchip_memory
0108d2a0 g     O .rwdata	00000008 alt_dev_list
01083664 g     F .text	000000b4 write
01080530 g     F .text	000000e8 _putc_r
0108d318 g     O .rwdata	00000002 OSVersionNbr
0108b86c g       *ABS*	00000000 __ram_rodata_end
010831a4 g     F .text	0000009c fstat
01088260 g     F .text	00000118 OSTmrRemainGet
0108d2c0 g     O .rwdata	00000004 OSEndiannessTest
0108ae98 g     F .text	00000008 __umodsi3
0108d2d2 g     O .rwdata	00000002 OSFlagGrpSize
010881b8 g     F .text	000000a8 OSTmrStateGet
01098eec g       *ABS*	00000000 end
010888ac g     F .text	000000c8 altera_avalon_jtag_uart_init
01084650 g     F .text	00000084 OS_TaskStat
0108b578 g       *ABS*	00000000 __CTOR_LIST__
01100000 g       *ABS*	00000000 __alt_stack_pointer
01088ec0 g     F .text	00000050 alt_avalon_timer_sc_init
0108afc4 g     F .text	00000080 __clzsi2
01088d08 g     F .text	000001b8 altera_avalon_jtag_uart_write
01087cfc g     F .text	00000160 OSTmr_Init
01080c50 g     F .text	00000004 __sfp_lock_acquire
0108221c g     F .text	000000e4 memchr
01083bb8 g     F .text	0000001c OS_MemClr
010896a0 g     F .text	000001ac OSTaskStkInit
0108019c g     F .text	000000b8 task1
01081018 g     F .text	00000314 _free_r
01083aa8 g     F .text	000000f4 OS_EventTaskRdy
01089bf4 g     F .text	000001b0 __call_exitprocs
0108ee78 g     O .bss	00000001 OSCPUUsage
0108d294 g     O .rwdata	00000004 __malloc_sbrk_base
01080124 g     F .text	0000003c _start
01080254 g     F .text	000000b8 task2
0108eeb4 g     O .bss	00000004 _alt_tick_rate
01085e58 g     F .text	000001c0 OSQPend
0108783c g     F .text	00000098 OSTimeDly
0108eeb8 g     O .bss	00000004 _alt_nticks
010834e0 g     F .text	000000b8 read
01088724 g     F .text	0000006c alt_sys_init
01089abc g     F .text	00000134 __register_exitproc
0108ee79 g     O .bss	00000001 OSTaskCtr
010878d4 g     F .text	000001a0 OSTimeDlyHMSM
010887ec g     F .text	00000038 altera_avalon_jtag_uart_close
010830a8 g     F .text	00000038 __mulsi3
0108b86c g       *ABS*	00000000 __ram_rwdata_start
0108b57c g       *ABS*	00000000 __ram_rodata_start
0108eec0 g     O .bss	00000028 __malloc_current_mallinfo
0108d2c6 g     O .rwdata	00000002 OSEventMax
010868a0 g     F .text	0000009c OSSemPost
0108445c g     F .text	00000054 OSSchedUnlock
010887dc g     F .text	00000010 altera_avalon_jtag_uart_read_fd
01089958 g     F .text	000000a4 alt_get_fd
0108ee7c g     O .bss	00000004 OSMemFreeList
010844b0 g     F .text	00000064 OSStatInit
01084be0 g     F .text	0000005c OSFlagQuery
0108b490 g     F .text	000000c8 __fpcmp_parts_d
0108d2fc g     O .rwdata	00000002 OSTaskCreateExtEn
01082d40 g     F .text	00000070 _close_r
01089a48 g     F .text	00000074 memcmp
010838d8 g     F .text	00000004 OS_Dummy
010887bc g     F .text	00000010 altera_avalon_jtag_uart_close_fd
01098eec g       *ABS*	00000000 __alt_stack_base
010887b0 g     F .text	0000000c altera_avalon_jtag_uart_ioctl_fd
0108088c g     F .text	0000013c __swsetup_r
010969d8 g     O .bss	000001e0 OSQTbl
0108a710 g     F .text	00000258 __divdf3
01080dfc g     F .text	000000f0 __sfp
0108bc6c g     O .rwdata	00000408 __malloc_av_
01080c5c g     F .text	00000004 __sinit_lock_release
0108a34c g     F .text	000003c4 __muldf3
0108ee80 g     O .bss	00000004 OSTCBHighRdy
01082c68 g     F .text	00000060 __sread
0108ee84 g     O .bss	00000004 OSQFreeList
010898bc g     F .text	0000009c alt_find_file
01088fe0 g     F .text	00000070 alt_dev_llist_insert
0108381c g     F .text	000000b4 __malloc_lock
010835f4 g     F .text	00000050 sbrk
0108492c g     F .text	000000bc OSEventNameSet
010809c8 g     F .text	000001fc _fflush_r
0108ee88 g     O .bss	00000001 OSRdyGrp
010880b4 g     F .text	00000104 OSTmrStart
0108ee0c g       *ABS*	00000000 __bss_start
01082480 g     F .text	00000098 memset
0108ee10 g     O .bss	00000001 err
01080354 g     F .text	000000d8 main
0108ee34 g     O .bss	00000004 alt_envp
0108ee20 g     O .bss	00000004 __malloc_max_total_mem
010887cc g     F .text	00000010 altera_avalon_jtag_uart_write_fd
01080870 g     F .text	0000001c __swbuf
0108b61e g     O .rodata	00000100 OSUnMapTbl
0108d2f6 g     O .rwdata	00000002 OSSemEn
01085454 g     F .text	000001f4 OSFlagPost
01082b7c g     F .text	00000008 __sclose
01100000 g       *ABS*	00000000 __alt_heap_limit
01082ec0 g     F .text	00000014 fclose
010838dc g     F .text	00000084 OS_EventTaskWait
01092ee8 g     O .bss	00002000 task2_stk
01083c44 g     F .text	00000084 OS_TaskStatStkChk
01098d5c g     O .bss	00000190 _atexit0
01087208 g     F .text	000000b4 OSTaskDelReq
01081adc g     F .text	00000740 _malloc_r
0108d2ac g     O .rwdata	00000004 alt_errno
01083d80 g     F .text	0000006c OSStart
01083718 g     F .text	00000028 __env_unlock
01081890 g     F .text	000000b8 _fwalk
010874e0 g     F .text	00000104 OSTaskResume
010856b0 g     F .text	00000064 OSMemQuery
0108d308 g     O .rwdata	00000002 OSTaskStatEn
0108d2e2 g     O .rwdata	00000002 OSMemMax
010861bc g     F .text	000000c4 OSQPostFront
0108042c g     F .text	00000104 putc
0108add0 g     F .text	00000060 __divsi3
0108ee89 g     O .bss	00000003 OSRdyTbl
0108d2bc g     O .rwdata	00000002 OSDebugEn
0108b758 g     O .rodata	00000014 __thenan_df
01080eec g     F .text	0000012c _malloc_trim_r
0108b57c g       *ABS*	00000000 __CTOR_END__
0108d2d4 g     O .rwdata	00000002 OSFlagNodeSize
0108d31c g     O .rwdata	00000002 OSTmrCfgMax
01085b84 g     F .text	00000100 OSQCreate
010872bc g     F .text	00000108 OSTaskNameGet
0108b57c g       *ABS*	00000000 __flash_rodata_start
01086280 g     F .text	00000144 OSQPostOpt
01084514 g     F .text	0000010c OSTimeTick
0108d304 g     O .rwdata	00000002 OSTaskMax
0108b57c g       *ABS*	00000000 __DTOR_LIST__
0108646c g     F .text	0000008c OSSemCreate
0108d328 g     O .rwdata	00000002 OSTmrWheelSize
0108d2fe g     O .rwdata	00000002 OSTaskDelEn
0108693c g     F .text	00000068 OSSemQuery
01085c84 g     F .text	00000184 OSQDel
01086018 g     F .text	000000e8 OSQPendAbort
01088790 g     F .text	00000020 alt_irq_init
01083598 g     F .text	0000005c alt_release_fd
0108ee14 g     O .bss	00000004 Sem0
0108b76c g     O .rodata	00000100 __clz_tab
01087f58 g     F .text	0000015c OSTmrStop
010899fc g     F .text	00000014 atexit
01082cc8 g     F .text	00000078 _write_r
01084418 g     F .text	00000044 OSSchedLock
01096bb8 g     O .bss	00000800 OSTmrTaskStk
01084dac g     F .text	00000088 OSFlagCreate
0108d288 g     O .rwdata	00000004 _impure_ptr
0108ee2c g     O .bss	00000004 alt_argc
01089090 g     F .text	00000040 _do_dtors
0108d2ce g     O .rwdata	00000002 OSEventMultiEn
01088588 g     F .text	0000019c OSTmrCreate
01084e34 g     F .text	00000160 OSFlagDel
0108ee8c g     O .bss	00000004 OSEventFreeList
00800020 g       .exceptions	00000000 alt_irq_entry
01085128 g     F .text	00000300 OSFlagPend
0108d31a g     O .rwdata	00000002 OSTmrEn
01080d14 g     F .text	00000018 __fp_unlock_all
0108d298 g     O .rwdata	00000008 alt_fs_list
0108849c g     F .text	000000ec OSTmrNameGet
01083bf8 g     F .text	0000002c OS_StrCopy
01080160 g     F .text	0000003c printStackSize
0108d2e4 g     O .rwdata	00000002 OSMemNameSize
0108963c g     F .text	00000004 OSInitHookEnd
00800020 g       *ABS*	00000000 __ram_exceptions_start
0108d310 g     O .rwdata	00000002 OSTCBPrioTblMax
0108d30c g     O .rwdata	00000002 OSTaskStatStkChkEn
0108916c g     F .text	00000004 alt_ic_isr_register
0108d2e0 g     O .rwdata	00000002 OSMemEn
0108d2ea g     O .rwdata	00000002 OSMutexEn
0108d33c g       *ABS*	00000000 _edata
01098eec g       *ABS*	00000000 _end
0108ee90 g     O .bss	00000001 OSIntNesting
00800144 g       *ABS*	00000000 __ram_exceptions_end
01088ae0 g     F .text	0000007c altera_avalon_jtag_uart_ioctl
01087a74 g     F .text	000000f8 OSTimeDlyResume
01085054 g     F .text	000000d4 OSFlagNameSet
010875e4 g     F .text	000000f0 OSTaskStkChk
0108912c g     F .text	00000040 alt_ic_irq_disable
0108d2e6 g     O .rwdata	00000002 OSMemSize
01082bec g     F .text	0000007c __swrite
0108d290 g     O .rwdata	00000004 __malloc_trim_threshold
0108954c g     F .text	00000008 altera_nios2_qsys_irq_init
0108ee94 g     O .bss	00000004 OSTCBCur
01089a10 g     F .text	00000038 exit
0108d2e8 g     O .rwdata	00000002 OSMemTblSize
010817c8 g     F .text	000000c8 _fwalk_reent
0108ae30 g     F .text	00000060 __modsi3
01100000 g       *ABS*	00000000 __alt_data_end
00800020 g     F .exceptions	00000000 alt_exception
01080c54 g     F .text	00000004 __sfp_lock_release
01083dec g     F .text	000001e0 OSInit
0108ee98 g     O .bss	00000004 OSTmrTime
00800000 g       *ABS*	00000000 __alt_mem_sdram
010869d4 g     F .text	000000c8 OSTaskQuery
01085a00 g     F .text	00000050 OS_QInit
01083c24 g     F .text	00000020 OS_StrLen
010858ec g     F .text	000000bc OSMemNameSet
0108d302 g     O .rwdata	00000002 OSTaskProfileEn
0108ee9c g     O .bss	00000004 OSTime
0108eea0 g     O .bss	00000004 OSTmrSem
010973b8 g     O .bss	00000800 OSTaskIdleStk
0108b558 g     F .text	00000020 _exit
01088f4c g     F .text	00000090 alt_alarm_start
01084f94 g     F .text	000000c0 OSFlagNameGet
01087b6c g     F .text	00000024 OSTimeGet
0108aea0 g     F .text	00000124 __muldi3
01081948 g     F .text	00000194 __smakebuf_r
010806cc g     F .text	00000074 strlen
0108962c g     F .text	00000004 OSTaskSwHook
010892f0 g     F .text	0000017c open
01097bb8 g     O .bss	00000b40 OSEventTbl
0108a968 g     F .text	00000088 __gedf2
010986f8 g     O .bss	00000510 OSTCBTbl
010863c4 g     F .text	00000064 OSSemSet
010890d0 g     F .text	00000004 alt_icache_flush_all
0108d330 g     O .rwdata	00000004 alt_priority_mask
010864f8 g     F .text	00000154 OSSemDel
0108eea4 g     O .bss	00000004 OSFlagFreeList
010890ec g     F .text	00000040 alt_ic_irq_enable
0108d2c8 g     O .rwdata	00000002 OSEventNameSize
0108eea8 g     O .bss	00000001 OSStatRdy
01098c08 g     O .bss	00000054 OSTCBPrioTbl
01083740 g     F .text	00000080 __env_lock
0108d30e g     O .rwdata	00000002 OSTaskSwHookEn
0108a258 g     F .text	00000080 __subdf3
0108d334 g     O .rwdata	00000008 alt_alarm_list
0108d2d6 g     O .rwdata	00000002 OSFlagWidth
01089050 g     F .text	00000040 _do_ctors
01083100 g     F .text	0000009c close
0108ee3c g     O .bss	00000004 alt_envsem
0108eeac g     O .bss	00000004 OSIdleCtrRun
010838d0 g     F .text	00000008 OSVersion
0108d320 g     O .rwdata	00000002 OSTmrCfgWheelSize
010832f4 g     F .text	0000006c alt_load
010869a4 g     F .text	00000030 OS_TaskStkClr
0108b044 g     F .text	00000314 __pack_d
0108d2fa g     O .rwdata	00000002 OSTaskCreateEn
01083b9c g     F .text	0000001c OS_EventWaitListInit
01089640 g     F .text	00000004 OSTaskIdleHook
00000000  w      *UND*	00000000 free
01080c58 g     F .text	00000004 __sinit_lock_acquire
010876d4 g     F .text	00000144 OSTaskSuspend
01084620 g     F .text	00000030 OS_TaskIdle
0108d326 g     O .rwdata	00000002 OSTmrTblSize
01085a50 g     F .text	00000098 OSQQuery



Disassembly of section .entry:

00800000 <__reset>:
  800000:	00404234 	movhi	at,264
  800004:	08404914 	ori	at,at,292
  800008:	0800683a 	jmp	at
	...

Disassembly of section .exceptions:

00800020 <alt_exception>:
  800020:	deffed04 	addi	sp,sp,-76
  800024:	dfc00015 	stw	ra,0(sp)
  800028:	d8400215 	stw	at,8(sp)
  80002c:	d8800315 	stw	r2,12(sp)
  800030:	d8c00415 	stw	r3,16(sp)
  800034:	d9000515 	stw	r4,20(sp)
  800038:	d9400615 	stw	r5,24(sp)
  80003c:	d9800715 	stw	r6,28(sp)
  800040:	d9c00815 	stw	r7,32(sp)
  800044:	000b307a 	rdctl	r5,estatus
  800048:	da000915 	stw	r8,36(sp)
  80004c:	da400a15 	stw	r9,40(sp)
  800050:	da800b15 	stw	r10,44(sp)
  800054:	dac00c15 	stw	r11,48(sp)
  800058:	db000d15 	stw	r12,52(sp)
  80005c:	db400e15 	stw	r13,56(sp)
  800060:	db800f15 	stw	r14,60(sp)
  800064:	dbc01015 	stw	r15,64(sp)
  800068:	d9401115 	stw	r5,68(sp)
  80006c:	ebffff04 	addi	r15,ea,-4
  800070:	dbc01215 	stw	r15,72(sp)
  800074:	0009313a 	rdctl	r4,ipending
  800078:	2880004c 	andi	r2,r5,1
  80007c:	10000326 	beq	r2,zero,80008c <alt_exception+0x6c>
  800080:	20000226 	beq	r4,zero,80008c <alt_exception+0x6c>
  800084:	08000ec0 	call	8000ec <alt_irq_handler>
  800088:	00000306 	br	800098 <alt_exception+0x78>
  80008c:	df401215 	stw	ea,72(sp)
  800090:	e8bfff17 	ldw	r2,-4(ea)
  800094:	003da03a 	break	0
  800098:	d9401117 	ldw	r5,68(sp)
  80009c:	df401217 	ldw	ea,72(sp)
  8000a0:	dfc00017 	ldw	ra,0(sp)
  8000a4:	2801707a 	wrctl	estatus,r5
  8000a8:	d8400217 	ldw	at,8(sp)
  8000ac:	d8800317 	ldw	r2,12(sp)
  8000b0:	d8c00417 	ldw	r3,16(sp)
  8000b4:	d9000517 	ldw	r4,20(sp)
  8000b8:	d9400617 	ldw	r5,24(sp)
  8000bc:	d9800717 	ldw	r6,28(sp)
  8000c0:	d9c00817 	ldw	r7,32(sp)
  8000c4:	da000917 	ldw	r8,36(sp)
  8000c8:	da400a17 	ldw	r9,40(sp)
  8000cc:	da800b17 	ldw	r10,44(sp)
  8000d0:	dac00c17 	ldw	r11,48(sp)
  8000d4:	db000d17 	ldw	r12,52(sp)
  8000d8:	db400e17 	ldw	r13,56(sp)
  8000dc:	db800f17 	ldw	r14,60(sp)
  8000e0:	dbc01017 	ldw	r15,64(sp)
  8000e4:	dec01304 	addi	sp,sp,76
  8000e8:	ef80083a 	eret

008000ec <alt_irq_handler>:
  8000ec:	deffff04 	addi	sp,sp,-4
  8000f0:	dfc00015 	stw	ra,0(sp)
  8000f4:	10843dc0 	call	10843dc <OSIntEnter>
  8000f8:	0009313a 	rdctl	r4,ipending
  8000fc:	00c00044 	movi	r3,1
  800100:	014042b4 	movhi	r5,266
  800104:	29631704 	addi	r5,r5,-29604
  800108:	20c4703a 	and	r2,r4,r3
  80010c:	18c7883a 	add	r3,r3,r3
  800110:	10000726 	beq	r2,zero,800130 <alt_irq_handler+0x44>
  800114:	29000117 	ldw	r4,4(r5)
  800118:	28800017 	ldw	r2,0(r5)
  80011c:	103ee83a 	callr	r2
  800120:	0005313a 	rdctl	r2,ipending
  800124:	10000426 	beq	r2,zero,800138 <alt_irq_handler+0x4c>
  800128:	1009883a 	mov	r4,r2
  80012c:	003ff306 	br	8000fc <alt_irq_handler+0x10>
  800130:	29400204 	addi	r5,r5,8
  800134:	003ff406 	br	800108 <alt_irq_handler+0x1c>
  800138:	dfc00017 	ldw	ra,0(sp)
  80013c:	dec00104 	addi	sp,sp,4
  800140:	10848581 	jmpi	1084858 <OSIntExit>

Disassembly of section .text:

01080124 <_start>:
 1080124:	06c04434 	movhi	sp,272
 1080128:	dec00014 	ori	sp,sp,0
 108012c:	06804274 	movhi	gp,265
 1080130:	d694a214 	ori	gp,gp,21128
 1080134:	00804234 	movhi	r2,264
 1080138:	10bb8314 	ori	r2,r2,60940
 108013c:	00c04274 	movhi	r3,265
 1080140:	18e3bb14 	ori	r3,r3,36588
 1080144:	10c00326 	beq	r2,r3,1080154 <_start+0x30>
 1080148:	10000015 	stw	zero,0(r2)
 108014c:	10800104 	addi	r2,r2,4
 1080150:	10fffd36 	bltu	r2,r3,1080148 <_start+0x24>
 1080154:	10832f40 	call	10832f4 <alt_load>
 1080158:	10834180 	call	1083418 <alt_main>

0108015c <alt_after_alt_main>:
 108015c:	003fff06 	br	108015c <alt_after_alt_main>

01080160 <printStackSize>:
 1080160:	defff904 	addi	sp,sp,-28
 1080164:	dfc00615 	stw	ra,24(sp)
 1080168:	df000515 	stw	fp,20(sp)
 108016c:	df000504 	addi	fp,sp,20
 1080170:	e13ffe15 	stw	r4,-8(fp)
 1080174:	e17fff05 	stb	r5,-4(fp)
 1080178:	e13fff03 	ldbu	r4,-4(fp)
 108017c:	e17ffc04 	addi	r5,fp,-16
 1080180:	10875e40 	call	10875e4 <OSTaskStkChk>
 1080184:	e0bffb05 	stb	r2,-20(fp)
 1080188:	e037883a 	mov	sp,fp
 108018c:	dfc00117 	ldw	ra,4(sp)
 1080190:	df000017 	ldw	fp,0(sp)
 1080194:	dec00204 	addi	sp,sp,8
 1080198:	f800283a 	ret

0108019c <task1>:
 108019c:	defff604 	addi	sp,sp,-40
 10801a0:	dfc00915 	stw	ra,36(sp)
 10801a4:	df000815 	stw	fp,32(sp)
 10801a8:	dc000715 	stw	r16,28(sp)
 10801ac:	df000704 	addi	fp,sp,28
 10801b0:	e13fff15 	stw	r4,-4(fp)
 10801b4:	d126e317 	ldw	r4,-25716(gp)
 10801b8:	000b883a 	mov	r5,zero
 10801bc:	d1a6e204 	addi	r6,gp,-25720
 10801c0:	108664c0 	call	108664c <OSSemPend>
 10801c4:	00c04274 	movhi	r3,265
 10801c8:	18ed5f04 	addi	r3,r3,-19076
 10801cc:	18800017 	ldw	r2,0(r3)
 10801d0:	e0bffa15 	stw	r2,-24(fp)
 10801d4:	18800117 	ldw	r2,4(r3)
 10801d8:	e0bffb15 	stw	r2,-20(fp)
 10801dc:	18800217 	ldw	r2,8(r3)
 10801e0:	e0bffc15 	stw	r2,-16(fp)
 10801e4:	18800317 	ldw	r2,12(r3)
 10801e8:	e0bffd15 	stw	r2,-12(fp)
 10801ec:	1880040b 	ldhu	r2,16(r3)
 10801f0:	e0bffe0d 	sth	r2,-8(fp)
 10801f4:	e03ff915 	stw	zero,-28(fp)
 10801f8:	00000f06 	br	1080238 <task1+0x9c>
 10801fc:	e0fff917 	ldw	r3,-28(fp)
 1080200:	e0bffa04 	addi	r2,fp,-24
 1080204:	10c5883a 	add	r2,r2,r3
 1080208:	10800003 	ldbu	r2,0(r2)
 108020c:	11003fcc 	andi	r4,r2,255
 1080210:	2100201c 	xori	r4,r4,128
 1080214:	213fe004 	addi	r4,r4,-128
 1080218:	00804274 	movhi	r2,265
 108021c:	10b4a204 	addi	r2,r2,-11640
 1080220:	10800017 	ldw	r2,0(r2)
 1080224:	11400217 	ldw	r5,8(r2)
 1080228:	108042c0 	call	108042c <putc>
 108022c:	e0bff917 	ldw	r2,-28(fp)
 1080230:	10800044 	addi	r2,r2,1
 1080234:	e0bff915 	stw	r2,-28(fp)
 1080238:	e43ff917 	ldw	r16,-28(fp)
 108023c:	e13ffa04 	addi	r4,fp,-24
 1080240:	10806cc0 	call	10806cc <strlen>
 1080244:	80bfed36 	bltu	r16,r2,10801fc <task1+0x60>
 1080248:	d126e117 	ldw	r4,-25724(gp)
 108024c:	10868a00 	call	10868a0 <OSSemPost>
 1080250:	003fd806 	br	10801b4 <task1+0x18>

01080254 <task2>:
 1080254:	defff604 	addi	sp,sp,-40
 1080258:	dfc00915 	stw	ra,36(sp)
 108025c:	df000815 	stw	fp,32(sp)
 1080260:	dc000715 	stw	r16,28(sp)
 1080264:	df000704 	addi	fp,sp,28
 1080268:	e13fff15 	stw	r4,-4(fp)
 108026c:	d126e117 	ldw	r4,-25724(gp)
 1080270:	000b883a 	mov	r5,zero
 1080274:	d1a6e204 	addi	r6,gp,-25720
 1080278:	108664c0 	call	108664c <OSSemPend>
 108027c:	00c04274 	movhi	r3,265
 1080280:	18ed6404 	addi	r3,r3,-19056
 1080284:	18800017 	ldw	r2,0(r3)
 1080288:	e0bffa15 	stw	r2,-24(fp)
 108028c:	18800117 	ldw	r2,4(r3)
 1080290:	e0bffb15 	stw	r2,-20(fp)
 1080294:	18800217 	ldw	r2,8(r3)
 1080298:	e0bffc15 	stw	r2,-16(fp)
 108029c:	18800317 	ldw	r2,12(r3)
 10802a0:	e0bffd15 	stw	r2,-12(fp)
 10802a4:	1880040b 	ldhu	r2,16(r3)
 10802a8:	e0bffe0d 	sth	r2,-8(fp)
 10802ac:	e03ff915 	stw	zero,-28(fp)
 10802b0:	00000f06 	br	10802f0 <task2+0x9c>
 10802b4:	e0fff917 	ldw	r3,-28(fp)
 10802b8:	e0bffa04 	addi	r2,fp,-24
 10802bc:	10c5883a 	add	r2,r2,r3
 10802c0:	10800003 	ldbu	r2,0(r2)
 10802c4:	11003fcc 	andi	r4,r2,255
 10802c8:	2100201c 	xori	r4,r4,128
 10802cc:	213fe004 	addi	r4,r4,-128
 10802d0:	00804274 	movhi	r2,265
 10802d4:	10b4a204 	addi	r2,r2,-11640
 10802d8:	10800017 	ldw	r2,0(r2)
 10802dc:	11400217 	ldw	r5,8(r2)
 10802e0:	108042c0 	call	108042c <putc>
 10802e4:	e0bff917 	ldw	r2,-28(fp)
 10802e8:	10800044 	addi	r2,r2,1
 10802ec:	e0bff915 	stw	r2,-28(fp)
 10802f0:	e43ff917 	ldw	r16,-28(fp)
 10802f4:	e13ffa04 	addi	r4,fp,-24
 10802f8:	10806cc0 	call	10806cc <strlen>
 10802fc:	80bfed36 	bltu	r16,r2,10802b4 <task2+0x60>
 1080300:	d126e317 	ldw	r4,-25716(gp)
 1080304:	10868a00 	call	10868a0 <OSSemPost>
 1080308:	003fd806 	br	108026c <task2+0x18>

0108030c <statisticTask>:
 108030c:	defffd04 	addi	sp,sp,-12
 1080310:	dfc00215 	stw	ra,8(sp)
 1080314:	df000115 	stw	fp,4(sp)
 1080318:	df000104 	addi	fp,sp,4
 108031c:	e13fff15 	stw	r4,-4(fp)
 1080320:	01004274 	movhi	r4,265
 1080324:	212d6904 	addi	r4,r4,-19036
 1080328:	01400184 	movi	r5,6
 108032c:	10801600 	call	1080160 <printStackSize>
 1080330:	01004274 	movhi	r4,265
 1080334:	212d6b04 	addi	r4,r4,-19028
 1080338:	014001c4 	movi	r5,7
 108033c:	10801600 	call	1080160 <printStackSize>
 1080340:	01004274 	movhi	r4,265
 1080344:	212d6d04 	addi	r4,r4,-19020
 1080348:	01400304 	movi	r5,12
 108034c:	10801600 	call	1080160 <printStackSize>
 1080350:	003ff306 	br	1080320 <statisticTask+0x14>

01080354 <main>:
 1080354:	defff904 	addi	sp,sp,-28
 1080358:	dfc00615 	stw	ra,24(sp)
 108035c:	df000515 	stw	fp,20(sp)
 1080360:	df000504 	addi	fp,sp,20
 1080364:	01004274 	movhi	r4,265
 1080368:	212d7104 	addi	r4,r4,-19004
 108036c:	10806b80 	call	10806b8 <puts>
 1080370:	01000044 	movi	r4,1
 1080374:	108646c0 	call	108646c <OSSemCreate>
 1080378:	d0a6e315 	stw	r2,-25716(gp)
 108037c:	0009883a 	mov	r4,zero
 1080380:	108646c0 	call	108646c <OSSemCreate>
 1080384:	d0a6e115 	stw	r2,-25724(gp)
 1080388:	01804274 	movhi	r6,265
 108038c:	3183b904 	addi	r6,r6,3812
 1080390:	00800184 	movi	r2,6
 1080394:	d8800015 	stw	r2,0(sp)
 1080398:	00804274 	movhi	r2,265
 108039c:	10bbba04 	addi	r2,r2,-4376
 10803a0:	d8800115 	stw	r2,4(sp)
 10803a4:	00820004 	movi	r2,2048
 10803a8:	d8800215 	stw	r2,8(sp)
 10803ac:	d8000315 	stw	zero,12(sp)
 10803b0:	008000c4 	movi	r2,3
 10803b4:	d8800415 	stw	r2,16(sp)
 10803b8:	01004234 	movhi	r4,264
 10803bc:	21006704 	addi	r4,r4,412
 10803c0:	000b883a 	mov	r5,zero
 10803c4:	01c00184 	movi	r7,6
 10803c8:	1086e440 	call	1086e44 <OSTaskCreateExt>
 10803cc:	01804274 	movhi	r6,265
 10803d0:	3193b904 	addi	r6,r6,20196
 10803d4:	008001c4 	movi	r2,7
 10803d8:	d8800015 	stw	r2,0(sp)
 10803dc:	00804274 	movhi	r2,265
 10803e0:	108bba04 	addi	r2,r2,12008
 10803e4:	d8800115 	stw	r2,4(sp)
 10803e8:	00820004 	movi	r2,2048
 10803ec:	d8800215 	stw	r2,8(sp)
 10803f0:	d8000315 	stw	zero,12(sp)
 10803f4:	008000c4 	movi	r2,3
 10803f8:	d8800415 	stw	r2,16(sp)
 10803fc:	01004234 	movhi	r4,264
 1080400:	21009504 	addi	r4,r4,596
 1080404:	000b883a 	mov	r5,zero
 1080408:	01c001c4 	movi	r7,7
 108040c:	1086e440 	call	1086e44 <OSTaskCreateExt>
 1080410:	1083d800 	call	1083d80 <OSStart>
 1080414:	0005883a 	mov	r2,zero
 1080418:	e037883a 	mov	sp,fp
 108041c:	dfc00117 	ldw	ra,4(sp)
 1080420:	df000017 	ldw	fp,0(sp)
 1080424:	dec00204 	addi	sp,sp,8
 1080428:	f800283a 	ret

0108042c <putc>:
 108042c:	defffc04 	addi	sp,sp,-16
 1080430:	dc800215 	stw	r18,8(sp)
 1080434:	04804274 	movhi	r18,265
 1080438:	94b4a204 	addi	r18,r18,-11640
 108043c:	90c00017 	ldw	r3,0(r18)
 1080440:	dc400115 	stw	r17,4(sp)
 1080444:	dc000015 	stw	r16,0(sp)
 1080448:	dfc00315 	stw	ra,12(sp)
 108044c:	2023883a 	mov	r17,r4
 1080450:	2821883a 	mov	r16,r5
 1080454:	18000226 	beq	r3,zero,1080460 <putc+0x34>
 1080458:	18800e17 	ldw	r2,56(r3)
 108045c:	10001126 	beq	r2,zero,10804a4 <putc+0x78>
 1080460:	80800217 	ldw	r2,8(r16)
 1080464:	10ffffc4 	addi	r3,r2,-1
 1080468:	80c00215 	stw	r3,8(r16)
 108046c:	18001316 	blt	r3,zero,10804bc <putc+0x90>
 1080470:	80800017 	ldw	r2,0(r16)
 1080474:	14400005 	stb	r17,0(r2)
 1080478:	80c00017 	ldw	r3,0(r16)
 108047c:	18800044 	addi	r2,r3,1
 1080480:	18c00003 	ldbu	r3,0(r3)
 1080484:	80800015 	stw	r2,0(r16)
 1080488:	1805883a 	mov	r2,r3
 108048c:	dfc00317 	ldw	ra,12(sp)
 1080490:	dc800217 	ldw	r18,8(sp)
 1080494:	dc400117 	ldw	r17,4(sp)
 1080498:	dc000017 	ldw	r16,0(sp)
 108049c:	dec00404 	addi	sp,sp,16
 10804a0:	f800283a 	ret
 10804a4:	1809883a 	mov	r4,r3
 10804a8:	1080c600 	call	1080c60 <__sinit>
 10804ac:	80800217 	ldw	r2,8(r16)
 10804b0:	10ffffc4 	addi	r3,r2,-1
 10804b4:	80c00215 	stw	r3,8(r16)
 10804b8:	183fed0e 	bge	r3,zero,1080470 <putc+0x44>
 10804bc:	80800617 	ldw	r2,24(r16)
 10804c0:	18800f16 	blt	r3,r2,1080500 <putc+0xd4>
 10804c4:	80800017 	ldw	r2,0(r16)
 10804c8:	14400005 	stb	r17,0(r2)
 10804cc:	81000017 	ldw	r4,0(r16)
 10804d0:	00800284 	movi	r2,10
 10804d4:	20c00003 	ldbu	r3,0(r4)
 10804d8:	18801226 	beq	r3,r2,1080524 <putc+0xf8>
 10804dc:	20800044 	addi	r2,r4,1
 10804e0:	80800015 	stw	r2,0(r16)
 10804e4:	1805883a 	mov	r2,r3
 10804e8:	dfc00317 	ldw	ra,12(sp)
 10804ec:	dc800217 	ldw	r18,8(sp)
 10804f0:	dc400117 	ldw	r17,4(sp)
 10804f4:	dc000017 	ldw	r16,0(sp)
 10804f8:	dec00404 	addi	sp,sp,16
 10804fc:	f800283a 	ret
 1080500:	91000017 	ldw	r4,0(r18)
 1080504:	880b883a 	mov	r5,r17
 1080508:	800d883a 	mov	r6,r16
 108050c:	dfc00317 	ldw	ra,12(sp)
 1080510:	dc800217 	ldw	r18,8(sp)
 1080514:	dc400117 	ldw	r17,4(sp)
 1080518:	dc000017 	ldw	r16,0(sp)
 108051c:	dec00404 	addi	sp,sp,16
 1080520:	10807401 	jmpi	1080740 <__swbuf_r>
 1080524:	91000017 	ldw	r4,0(r18)
 1080528:	180b883a 	mov	r5,r3
 108052c:	003ff606 	br	1080508 <putc+0xdc>

01080530 <_putc_r>:
 1080530:	defffc04 	addi	sp,sp,-16
 1080534:	dc400215 	stw	r17,8(sp)
 1080538:	dc000115 	stw	r16,4(sp)
 108053c:	dfc00315 	stw	ra,12(sp)
 1080540:	2021883a 	mov	r16,r4
 1080544:	2823883a 	mov	r17,r5
 1080548:	20000226 	beq	r4,zero,1080554 <_putc_r+0x24>
 108054c:	20800e17 	ldw	r2,56(r4)
 1080550:	10001026 	beq	r2,zero,1080594 <_putc_r+0x64>
 1080554:	30800217 	ldw	r2,8(r6)
 1080558:	10ffffc4 	addi	r3,r2,-1
 108055c:	30c00215 	stw	r3,8(r6)
 1080560:	18001316 	blt	r3,zero,10805b0 <_putc_r+0x80>
 1080564:	30800017 	ldw	r2,0(r6)
 1080568:	14400005 	stb	r17,0(r2)
 108056c:	30c00017 	ldw	r3,0(r6)
 1080570:	18800044 	addi	r2,r3,1
 1080574:	18c00003 	ldbu	r3,0(r3)
 1080578:	30800015 	stw	r2,0(r6)
 108057c:	1805883a 	mov	r2,r3
 1080580:	dfc00317 	ldw	ra,12(sp)
 1080584:	dc400217 	ldw	r17,8(sp)
 1080588:	dc000117 	ldw	r16,4(sp)
 108058c:	dec00404 	addi	sp,sp,16
 1080590:	f800283a 	ret
 1080594:	d9800015 	stw	r6,0(sp)
 1080598:	1080c600 	call	1080c60 <__sinit>
 108059c:	d9800017 	ldw	r6,0(sp)
 10805a0:	30800217 	ldw	r2,8(r6)
 10805a4:	10ffffc4 	addi	r3,r2,-1
 10805a8:	30c00215 	stw	r3,8(r6)
 10805ac:	183fed0e 	bge	r3,zero,1080564 <_putc_r+0x34>
 10805b0:	30800617 	ldw	r2,24(r6)
 10805b4:	18800e16 	blt	r3,r2,10805f0 <_putc_r+0xc0>
 10805b8:	30800017 	ldw	r2,0(r6)
 10805bc:	14400005 	stb	r17,0(r2)
 10805c0:	31000017 	ldw	r4,0(r6)
 10805c4:	00800284 	movi	r2,10
 10805c8:	20c00003 	ldbu	r3,0(r4)
 10805cc:	18800f26 	beq	r3,r2,108060c <_putc_r+0xdc>
 10805d0:	20800044 	addi	r2,r4,1
 10805d4:	30800015 	stw	r2,0(r6)
 10805d8:	1805883a 	mov	r2,r3
 10805dc:	dfc00317 	ldw	ra,12(sp)
 10805e0:	dc400217 	ldw	r17,8(sp)
 10805e4:	dc000117 	ldw	r16,4(sp)
 10805e8:	dec00404 	addi	sp,sp,16
 10805ec:	f800283a 	ret
 10805f0:	8009883a 	mov	r4,r16
 10805f4:	880b883a 	mov	r5,r17
 10805f8:	dfc00317 	ldw	ra,12(sp)
 10805fc:	dc400217 	ldw	r17,8(sp)
 1080600:	dc000117 	ldw	r16,4(sp)
 1080604:	dec00404 	addi	sp,sp,16
 1080608:	10807401 	jmpi	1080740 <__swbuf_r>
 108060c:	8009883a 	mov	r4,r16
 1080610:	180b883a 	mov	r5,r3
 1080614:	003ff806 	br	10805f8 <_putc_r+0xc8>

01080618 <_puts_r>:
 1080618:	defff604 	addi	sp,sp,-40
 108061c:	dc400715 	stw	r17,28(sp)
 1080620:	2023883a 	mov	r17,r4
 1080624:	2809883a 	mov	r4,r5
 1080628:	dfc00915 	stw	ra,36(sp)
 108062c:	dcc00815 	stw	r19,32(sp)
 1080630:	2827883a 	mov	r19,r5
 1080634:	10806cc0 	call	10806cc <strlen>
 1080638:	89400217 	ldw	r5,8(r17)
 108063c:	00c04274 	movhi	r3,265
 1080640:	18ed7704 	addi	r3,r3,-18980
 1080644:	01c00044 	movi	r7,1
 1080648:	12000044 	addi	r8,r2,1
 108064c:	d8c00515 	stw	r3,20(sp)
 1080650:	d9c00615 	stw	r7,24(sp)
 1080654:	d8c00304 	addi	r3,sp,12
 1080658:	01c00084 	movi	r7,2
 108065c:	8809883a 	mov	r4,r17
 1080660:	d80d883a 	mov	r6,sp
 1080664:	d8c00015 	stw	r3,0(sp)
 1080668:	dcc00315 	stw	r19,12(sp)
 108066c:	da000215 	stw	r8,8(sp)
 1080670:	d9c00115 	stw	r7,4(sp)
 1080674:	d8800415 	stw	r2,16(sp)
 1080678:	108132c0 	call	108132c <__sfvwrite_r>
 108067c:	00ffffc4 	movi	r3,-1
 1080680:	10000626 	beq	r2,zero,108069c <_puts_r+0x84>
 1080684:	1805883a 	mov	r2,r3
 1080688:	dfc00917 	ldw	ra,36(sp)
 108068c:	dcc00817 	ldw	r19,32(sp)
 1080690:	dc400717 	ldw	r17,28(sp)
 1080694:	dec00a04 	addi	sp,sp,40
 1080698:	f800283a 	ret
 108069c:	00c00284 	movi	r3,10
 10806a0:	1805883a 	mov	r2,r3
 10806a4:	dfc00917 	ldw	ra,36(sp)
 10806a8:	dcc00817 	ldw	r19,32(sp)
 10806ac:	dc400717 	ldw	r17,28(sp)
 10806b0:	dec00a04 	addi	sp,sp,40
 10806b4:	f800283a 	ret

010806b8 <puts>:
 10806b8:	00804274 	movhi	r2,265
 10806bc:	10b4a204 	addi	r2,r2,-11640
 10806c0:	200b883a 	mov	r5,r4
 10806c4:	11000017 	ldw	r4,0(r2)
 10806c8:	10806181 	jmpi	1080618 <_puts_r>

010806cc <strlen>:
 10806cc:	208000cc 	andi	r2,r4,3
 10806d0:	2011883a 	mov	r8,r4
 10806d4:	1000161e 	bne	r2,zero,1080730 <strlen+0x64>
 10806d8:	20c00017 	ldw	r3,0(r4)
 10806dc:	017fbff4 	movhi	r5,65279
 10806e0:	297fbfc4 	addi	r5,r5,-257
 10806e4:	01e02074 	movhi	r7,32897
 10806e8:	39e02004 	addi	r7,r7,-32640
 10806ec:	1945883a 	add	r2,r3,r5
 10806f0:	11c4703a 	and	r2,r2,r7
 10806f4:	00c6303a 	nor	r3,zero,r3
 10806f8:	1886703a 	and	r3,r3,r2
 10806fc:	18000c1e 	bne	r3,zero,1080730 <strlen+0x64>
 1080700:	280d883a 	mov	r6,r5
 1080704:	380b883a 	mov	r5,r7
 1080708:	21000104 	addi	r4,r4,4
 108070c:	20800017 	ldw	r2,0(r4)
 1080710:	1187883a 	add	r3,r2,r6
 1080714:	1946703a 	and	r3,r3,r5
 1080718:	0084303a 	nor	r2,zero,r2
 108071c:	10c4703a 	and	r2,r2,r3
 1080720:	103ff926 	beq	r2,zero,1080708 <strlen+0x3c>
 1080724:	20800007 	ldb	r2,0(r4)
 1080728:	10000326 	beq	r2,zero,1080738 <strlen+0x6c>
 108072c:	21000044 	addi	r4,r4,1
 1080730:	20800007 	ldb	r2,0(r4)
 1080734:	103ffd1e 	bne	r2,zero,108072c <strlen+0x60>
 1080738:	2205c83a 	sub	r2,r4,r8
 108073c:	f800283a 	ret

01080740 <__swbuf_r>:
 1080740:	defffc04 	addi	sp,sp,-16
 1080744:	dc400215 	stw	r17,8(sp)
 1080748:	dc000115 	stw	r16,4(sp)
 108074c:	dfc00315 	stw	ra,12(sp)
 1080750:	2023883a 	mov	r17,r4
 1080754:	2821883a 	mov	r16,r5
 1080758:	20000226 	beq	r4,zero,1080764 <__swbuf_r+0x24>
 108075c:	20800e17 	ldw	r2,56(r4)
 1080760:	10002f26 	beq	r2,zero,1080820 <__swbuf_r+0xe0>
 1080764:	3080030b 	ldhu	r2,12(r6)
 1080768:	30c00617 	ldw	r3,24(r6)
 108076c:	1080020c 	andi	r2,r2,8
 1080770:	30c00215 	stw	r3,8(r6)
 1080774:	10002226 	beq	r2,zero,1080800 <__swbuf_r+0xc0>
 1080778:	30c00417 	ldw	r3,16(r6)
 108077c:	18002026 	beq	r3,zero,1080800 <__swbuf_r+0xc0>
 1080780:	31000017 	ldw	r4,0(r6)
 1080784:	30800517 	ldw	r2,20(r6)
 1080788:	20c7c83a 	sub	r3,r4,r3
 108078c:	18802f0e 	bge	r3,r2,108084c <__swbuf_r+0x10c>
 1080790:	19400044 	addi	r5,r3,1
 1080794:	30800217 	ldw	r2,8(r6)
 1080798:	84003fcc 	andi	r16,r16,255
 108079c:	20c00044 	addi	r3,r4,1
 10807a0:	10bfffc4 	addi	r2,r2,-1
 10807a4:	30800215 	stw	r2,8(r6)
 10807a8:	24000005 	stb	r16,0(r4)
 10807ac:	30800517 	ldw	r2,20(r6)
 10807b0:	30c00015 	stw	r3,0(r6)
 10807b4:	11400c26 	beq	r2,r5,10807e8 <__swbuf_r+0xa8>
 10807b8:	3080030b 	ldhu	r2,12(r6)
 10807bc:	1080004c 	andi	r2,r2,1
 10807c0:	1005003a 	cmpeq	r2,r2,zero
 10807c4:	10000626 	beq	r2,zero,10807e0 <__swbuf_r+0xa0>
 10807c8:	8005883a 	mov	r2,r16
 10807cc:	dfc00317 	ldw	ra,12(sp)
 10807d0:	dc400217 	ldw	r17,8(sp)
 10807d4:	dc000117 	ldw	r16,4(sp)
 10807d8:	dec00404 	addi	sp,sp,16
 10807dc:	f800283a 	ret
 10807e0:	00800284 	movi	r2,10
 10807e4:	80bff81e 	bne	r16,r2,10807c8 <__swbuf_r+0x88>
 10807e8:	8809883a 	mov	r4,r17
 10807ec:	300b883a 	mov	r5,r6
 10807f0:	10809c80 	call	10809c8 <_fflush_r>
 10807f4:	103ff426 	beq	r2,zero,10807c8 <__swbuf_r+0x88>
 10807f8:	043fffc4 	movi	r16,-1
 10807fc:	003ff206 	br	10807c8 <__swbuf_r+0x88>
 1080800:	300b883a 	mov	r5,r6
 1080804:	8809883a 	mov	r4,r17
 1080808:	d9800015 	stw	r6,0(sp)
 108080c:	108088c0 	call	108088c <__swsetup_r>
 1080810:	d9800017 	ldw	r6,0(sp)
 1080814:	1000061e 	bne	r2,zero,1080830 <__swbuf_r+0xf0>
 1080818:	30c00417 	ldw	r3,16(r6)
 108081c:	003fd806 	br	1080780 <__swbuf_r+0x40>
 1080820:	d9800015 	stw	r6,0(sp)
 1080824:	1080c600 	call	1080c60 <__sinit>
 1080828:	d9800017 	ldw	r6,0(sp)
 108082c:	003fcd06 	br	1080764 <__swbuf_r+0x24>
 1080830:	3080030b 	ldhu	r2,12(r6)
 1080834:	00c00244 	movi	r3,9
 1080838:	043fffc4 	movi	r16,-1
 108083c:	10801014 	ori	r2,r2,64
 1080840:	3080030d 	sth	r2,12(r6)
 1080844:	88c00015 	stw	r3,0(r17)
 1080848:	003fdf06 	br	10807c8 <__swbuf_r+0x88>
 108084c:	300b883a 	mov	r5,r6
 1080850:	8809883a 	mov	r4,r17
 1080854:	d9800015 	stw	r6,0(sp)
 1080858:	10809c80 	call	10809c8 <_fflush_r>
 108085c:	d9800017 	ldw	r6,0(sp)
 1080860:	103fe51e 	bne	r2,zero,10807f8 <__swbuf_r+0xb8>
 1080864:	31000017 	ldw	r4,0(r6)
 1080868:	01400044 	movi	r5,1
 108086c:	003fc906 	br	1080794 <__swbuf_r+0x54>

01080870 <__swbuf>:
 1080870:	01804274 	movhi	r6,265
 1080874:	31b4a204 	addi	r6,r6,-11640
 1080878:	2007883a 	mov	r3,r4
 108087c:	31000017 	ldw	r4,0(r6)
 1080880:	280d883a 	mov	r6,r5
 1080884:	180b883a 	mov	r5,r3
 1080888:	10807401 	jmpi	1080740 <__swbuf_r>

0108088c <__swsetup_r>:
 108088c:	00804274 	movhi	r2,265
 1080890:	10b4a204 	addi	r2,r2,-11640
 1080894:	10c00017 	ldw	r3,0(r2)
 1080898:	defffd04 	addi	sp,sp,-12
 108089c:	dc400115 	stw	r17,4(sp)
 10808a0:	dc000015 	stw	r16,0(sp)
 10808a4:	dfc00215 	stw	ra,8(sp)
 10808a8:	2023883a 	mov	r17,r4
 10808ac:	2821883a 	mov	r16,r5
 10808b0:	18000226 	beq	r3,zero,10808bc <__swsetup_r+0x30>
 10808b4:	18800e17 	ldw	r2,56(r3)
 10808b8:	10001f26 	beq	r2,zero,1080938 <__swsetup_r+0xac>
 10808bc:	8100030b 	ldhu	r4,12(r16)
 10808c0:	2080020c 	andi	r2,r4,8
 10808c4:	10002826 	beq	r2,zero,1080968 <__swsetup_r+0xdc>
 10808c8:	81400417 	ldw	r5,16(r16)
 10808cc:	28001d26 	beq	r5,zero,1080944 <__swsetup_r+0xb8>
 10808d0:	2080004c 	andi	r2,r4,1
 10808d4:	1005003a 	cmpeq	r2,r2,zero
 10808d8:	10000b26 	beq	r2,zero,1080908 <__swsetup_r+0x7c>
 10808dc:	2080008c 	andi	r2,r4,2
 10808e0:	10001226 	beq	r2,zero,108092c <__swsetup_r+0xa0>
 10808e4:	0005883a 	mov	r2,zero
 10808e8:	80800215 	stw	r2,8(r16)
 10808ec:	28000b26 	beq	r5,zero,108091c <__swsetup_r+0x90>
 10808f0:	0005883a 	mov	r2,zero
 10808f4:	dfc00217 	ldw	ra,8(sp)
 10808f8:	dc400117 	ldw	r17,4(sp)
 10808fc:	dc000017 	ldw	r16,0(sp)
 1080900:	dec00304 	addi	sp,sp,12
 1080904:	f800283a 	ret
 1080908:	80800517 	ldw	r2,20(r16)
 108090c:	80000215 	stw	zero,8(r16)
 1080910:	0085c83a 	sub	r2,zero,r2
 1080914:	80800615 	stw	r2,24(r16)
 1080918:	283ff51e 	bne	r5,zero,10808f0 <__swsetup_r+0x64>
 108091c:	2080200c 	andi	r2,r4,128
 1080920:	103ff326 	beq	r2,zero,10808f0 <__swsetup_r+0x64>
 1080924:	00bfffc4 	movi	r2,-1
 1080928:	003ff206 	br	10808f4 <__swsetup_r+0x68>
 108092c:	80800517 	ldw	r2,20(r16)
 1080930:	80800215 	stw	r2,8(r16)
 1080934:	003fed06 	br	10808ec <__swsetup_r+0x60>
 1080938:	1809883a 	mov	r4,r3
 108093c:	1080c600 	call	1080c60 <__sinit>
 1080940:	003fde06 	br	10808bc <__swsetup_r+0x30>
 1080944:	20c0a00c 	andi	r3,r4,640
 1080948:	00808004 	movi	r2,512
 108094c:	18bfe026 	beq	r3,r2,10808d0 <__swsetup_r+0x44>
 1080950:	8809883a 	mov	r4,r17
 1080954:	800b883a 	mov	r5,r16
 1080958:	10819480 	call	1081948 <__smakebuf_r>
 108095c:	8100030b 	ldhu	r4,12(r16)
 1080960:	81400417 	ldw	r5,16(r16)
 1080964:	003fda06 	br	10808d0 <__swsetup_r+0x44>
 1080968:	2080040c 	andi	r2,r4,16
 108096c:	103fed26 	beq	r2,zero,1080924 <__swsetup_r+0x98>
 1080970:	2080010c 	andi	r2,r4,4
 1080974:	10001226 	beq	r2,zero,10809c0 <__swsetup_r+0x134>
 1080978:	81400c17 	ldw	r5,48(r16)
 108097c:	28000526 	beq	r5,zero,1080994 <__swsetup_r+0x108>
 1080980:	80801004 	addi	r2,r16,64
 1080984:	28800226 	beq	r5,r2,1080990 <__swsetup_r+0x104>
 1080988:	8809883a 	mov	r4,r17
 108098c:	10810180 	call	1081018 <_free_r>
 1080990:	80000c15 	stw	zero,48(r16)
 1080994:	8080030b 	ldhu	r2,12(r16)
 1080998:	81400417 	ldw	r5,16(r16)
 108099c:	80000115 	stw	zero,4(r16)
 10809a0:	10bff6cc 	andi	r2,r2,65499
 10809a4:	8080030d 	sth	r2,12(r16)
 10809a8:	81400015 	stw	r5,0(r16)
 10809ac:	8080030b 	ldhu	r2,12(r16)
 10809b0:	10800214 	ori	r2,r2,8
 10809b4:	113fffcc 	andi	r4,r2,65535
 10809b8:	8080030d 	sth	r2,12(r16)
 10809bc:	003fc306 	br	10808cc <__swsetup_r+0x40>
 10809c0:	81400417 	ldw	r5,16(r16)
 10809c4:	003ff906 	br	10809ac <__swsetup_r+0x120>

010809c8 <_fflush_r>:
 10809c8:	defffb04 	addi	sp,sp,-20
 10809cc:	dcc00315 	stw	r19,12(sp)
 10809d0:	dc800215 	stw	r18,8(sp)
 10809d4:	dfc00415 	stw	ra,16(sp)
 10809d8:	dc400115 	stw	r17,4(sp)
 10809dc:	dc000015 	stw	r16,0(sp)
 10809e0:	2027883a 	mov	r19,r4
 10809e4:	2825883a 	mov	r18,r5
 10809e8:	20000226 	beq	r4,zero,10809f4 <_fflush_r+0x2c>
 10809ec:	20800e17 	ldw	r2,56(r4)
 10809f0:	10005626 	beq	r2,zero,1080b4c <_fflush_r+0x184>
 10809f4:	9100030b 	ldhu	r4,12(r18)
 10809f8:	20ffffcc 	andi	r3,r4,65535
 10809fc:	18e0001c 	xori	r3,r3,32768
 1080a00:	18e00004 	addi	r3,r3,-32768
 1080a04:	1880020c 	andi	r2,r3,8
 1080a08:	1000261e 	bne	r2,zero,1080aa4 <_fflush_r+0xdc>
 1080a0c:	90c00117 	ldw	r3,4(r18)
 1080a10:	20820014 	ori	r2,r4,2048
 1080a14:	9080030d 	sth	r2,12(r18)
 1080a18:	1009883a 	mov	r4,r2
 1080a1c:	00c0400e 	bge	zero,r3,1080b20 <_fflush_r+0x158>
 1080a20:	92000a17 	ldw	r8,40(r18)
 1080a24:	40004026 	beq	r8,zero,1080b28 <_fflush_r+0x160>
 1080a28:	2084000c 	andi	r2,r4,4096
 1080a2c:	10005326 	beq	r2,zero,1080b7c <_fflush_r+0x1b4>
 1080a30:	94001417 	ldw	r16,80(r18)
 1080a34:	9080030b 	ldhu	r2,12(r18)
 1080a38:	1080010c 	andi	r2,r2,4
 1080a3c:	1000481e 	bne	r2,zero,1080b60 <_fflush_r+0x198>
 1080a40:	91400717 	ldw	r5,28(r18)
 1080a44:	9809883a 	mov	r4,r19
 1080a48:	800d883a 	mov	r6,r16
 1080a4c:	000f883a 	mov	r7,zero
 1080a50:	403ee83a 	callr	r8
 1080a54:	8080261e 	bne	r16,r2,1080af0 <_fflush_r+0x128>
 1080a58:	9080030b 	ldhu	r2,12(r18)
 1080a5c:	91000417 	ldw	r4,16(r18)
 1080a60:	90000115 	stw	zero,4(r18)
 1080a64:	10bdffcc 	andi	r2,r2,63487
 1080a68:	10ffffcc 	andi	r3,r2,65535
 1080a6c:	18c4000c 	andi	r3,r3,4096
 1080a70:	9080030d 	sth	r2,12(r18)
 1080a74:	91000015 	stw	r4,0(r18)
 1080a78:	18002b26 	beq	r3,zero,1080b28 <_fflush_r+0x160>
 1080a7c:	0007883a 	mov	r3,zero
 1080a80:	1805883a 	mov	r2,r3
 1080a84:	94001415 	stw	r16,80(r18)
 1080a88:	dfc00417 	ldw	ra,16(sp)
 1080a8c:	dcc00317 	ldw	r19,12(sp)
 1080a90:	dc800217 	ldw	r18,8(sp)
 1080a94:	dc400117 	ldw	r17,4(sp)
 1080a98:	dc000017 	ldw	r16,0(sp)
 1080a9c:	dec00504 	addi	sp,sp,20
 1080aa0:	f800283a 	ret
 1080aa4:	94400417 	ldw	r17,16(r18)
 1080aa8:	88001f26 	beq	r17,zero,1080b28 <_fflush_r+0x160>
 1080aac:	90800017 	ldw	r2,0(r18)
 1080ab0:	18c000cc 	andi	r3,r3,3
 1080ab4:	94400015 	stw	r17,0(r18)
 1080ab8:	1461c83a 	sub	r16,r2,r17
 1080abc:	18002526 	beq	r3,zero,1080b54 <_fflush_r+0x18c>
 1080ac0:	0005883a 	mov	r2,zero
 1080ac4:	90800215 	stw	r2,8(r18)
 1080ac8:	0400170e 	bge	zero,r16,1080b28 <_fflush_r+0x160>
 1080acc:	90c00917 	ldw	r3,36(r18)
 1080ad0:	91400717 	ldw	r5,28(r18)
 1080ad4:	880d883a 	mov	r6,r17
 1080ad8:	800f883a 	mov	r7,r16
 1080adc:	9809883a 	mov	r4,r19
 1080ae0:	183ee83a 	callr	r3
 1080ae4:	88a3883a 	add	r17,r17,r2
 1080ae8:	80a1c83a 	sub	r16,r16,r2
 1080aec:	00bff616 	blt	zero,r2,1080ac8 <_fflush_r+0x100>
 1080af0:	9080030b 	ldhu	r2,12(r18)
 1080af4:	00ffffc4 	movi	r3,-1
 1080af8:	10801014 	ori	r2,r2,64
 1080afc:	9080030d 	sth	r2,12(r18)
 1080b00:	1805883a 	mov	r2,r3
 1080b04:	dfc00417 	ldw	ra,16(sp)
 1080b08:	dcc00317 	ldw	r19,12(sp)
 1080b0c:	dc800217 	ldw	r18,8(sp)
 1080b10:	dc400117 	ldw	r17,4(sp)
 1080b14:	dc000017 	ldw	r16,0(sp)
 1080b18:	dec00504 	addi	sp,sp,20
 1080b1c:	f800283a 	ret
 1080b20:	90800f17 	ldw	r2,60(r18)
 1080b24:	00bfbe16 	blt	zero,r2,1080a20 <_fflush_r+0x58>
 1080b28:	0007883a 	mov	r3,zero
 1080b2c:	1805883a 	mov	r2,r3
 1080b30:	dfc00417 	ldw	ra,16(sp)
 1080b34:	dcc00317 	ldw	r19,12(sp)
 1080b38:	dc800217 	ldw	r18,8(sp)
 1080b3c:	dc400117 	ldw	r17,4(sp)
 1080b40:	dc000017 	ldw	r16,0(sp)
 1080b44:	dec00504 	addi	sp,sp,20
 1080b48:	f800283a 	ret
 1080b4c:	1080c600 	call	1080c60 <__sinit>
 1080b50:	003fa806 	br	10809f4 <_fflush_r+0x2c>
 1080b54:	90800517 	ldw	r2,20(r18)
 1080b58:	90800215 	stw	r2,8(r18)
 1080b5c:	003fda06 	br	1080ac8 <_fflush_r+0x100>
 1080b60:	90800117 	ldw	r2,4(r18)
 1080b64:	90c00c17 	ldw	r3,48(r18)
 1080b68:	80a1c83a 	sub	r16,r16,r2
 1080b6c:	183fb426 	beq	r3,zero,1080a40 <_fflush_r+0x78>
 1080b70:	90800f17 	ldw	r2,60(r18)
 1080b74:	80a1c83a 	sub	r16,r16,r2
 1080b78:	003fb106 	br	1080a40 <_fflush_r+0x78>
 1080b7c:	91400717 	ldw	r5,28(r18)
 1080b80:	9809883a 	mov	r4,r19
 1080b84:	000d883a 	mov	r6,zero
 1080b88:	01c00044 	movi	r7,1
 1080b8c:	403ee83a 	callr	r8
 1080b90:	1021883a 	mov	r16,r2
 1080b94:	00bfffc4 	movi	r2,-1
 1080b98:	80800226 	beq	r16,r2,1080ba4 <_fflush_r+0x1dc>
 1080b9c:	92000a17 	ldw	r8,40(r18)
 1080ba0:	003fa406 	br	1080a34 <_fflush_r+0x6c>
 1080ba4:	98c00017 	ldw	r3,0(r19)
 1080ba8:	00800744 	movi	r2,29
 1080bac:	18bfde26 	beq	r3,r2,1080b28 <_fflush_r+0x160>
 1080bb0:	9080030b 	ldhu	r2,12(r18)
 1080bb4:	8007883a 	mov	r3,r16
 1080bb8:	10801014 	ori	r2,r2,64
 1080bbc:	9080030d 	sth	r2,12(r18)
 1080bc0:	003fcf06 	br	1080b00 <_fflush_r+0x138>

01080bc4 <fflush>:
 1080bc4:	01404234 	movhi	r5,264
 1080bc8:	29427204 	addi	r5,r5,2504
 1080bcc:	2007883a 	mov	r3,r4
 1080bd0:	20000526 	beq	r4,zero,1080be8 <fflush+0x24>
 1080bd4:	00804274 	movhi	r2,265
 1080bd8:	10b4a204 	addi	r2,r2,-11640
 1080bdc:	11000017 	ldw	r4,0(r2)
 1080be0:	180b883a 	mov	r5,r3
 1080be4:	10809c81 	jmpi	10809c8 <_fflush_r>
 1080be8:	00804274 	movhi	r2,265
 1080bec:	10b4a304 	addi	r2,r2,-11636
 1080bf0:	11000017 	ldw	r4,0(r2)
 1080bf4:	10817c81 	jmpi	10817c8 <_fwalk_reent>

01080bf8 <std>:
 1080bf8:	00804234 	movhi	r2,264
 1080bfc:	108adf04 	addi	r2,r2,11132
 1080c00:	20800b15 	stw	r2,44(r4)
 1080c04:	00804234 	movhi	r2,264
 1080c08:	108b1a04 	addi	r2,r2,11368
 1080c0c:	20800815 	stw	r2,32(r4)
 1080c10:	00c04234 	movhi	r3,264
 1080c14:	18cafb04 	addi	r3,r3,11244
 1080c18:	00804234 	movhi	r2,264
 1080c1c:	108ae104 	addi	r2,r2,11140
 1080c20:	2140030d 	sth	r5,12(r4)
 1080c24:	2180038d 	sth	r6,14(r4)
 1080c28:	20c00915 	stw	r3,36(r4)
 1080c2c:	20800a15 	stw	r2,40(r4)
 1080c30:	20000015 	stw	zero,0(r4)
 1080c34:	20000115 	stw	zero,4(r4)
 1080c38:	20000215 	stw	zero,8(r4)
 1080c3c:	20000415 	stw	zero,16(r4)
 1080c40:	20000515 	stw	zero,20(r4)
 1080c44:	20000615 	stw	zero,24(r4)
 1080c48:	21000715 	stw	r4,28(r4)
 1080c4c:	f800283a 	ret

01080c50 <__sfp_lock_acquire>:
 1080c50:	f800283a 	ret

01080c54 <__sfp_lock_release>:
 1080c54:	f800283a 	ret

01080c58 <__sinit_lock_acquire>:
 1080c58:	f800283a 	ret

01080c5c <__sinit_lock_release>:
 1080c5c:	f800283a 	ret

01080c60 <__sinit>:
 1080c60:	20800e17 	ldw	r2,56(r4)
 1080c64:	defffd04 	addi	sp,sp,-12
 1080c68:	dc400115 	stw	r17,4(sp)
 1080c6c:	dc000015 	stw	r16,0(sp)
 1080c70:	dfc00215 	stw	ra,8(sp)
 1080c74:	04400044 	movi	r17,1
 1080c78:	01400104 	movi	r5,4
 1080c7c:	000d883a 	mov	r6,zero
 1080c80:	2021883a 	mov	r16,r4
 1080c84:	2200bb04 	addi	r8,r4,748
 1080c88:	200f883a 	mov	r7,r4
 1080c8c:	10000526 	beq	r2,zero,1080ca4 <__sinit+0x44>
 1080c90:	dfc00217 	ldw	ra,8(sp)
 1080c94:	dc400117 	ldw	r17,4(sp)
 1080c98:	dc000017 	ldw	r16,0(sp)
 1080c9c:	dec00304 	addi	sp,sp,12
 1080ca0:	f800283a 	ret
 1080ca4:	21000117 	ldw	r4,4(r4)
 1080ca8:	00804234 	movhi	r2,264
 1080cac:	10835104 	addi	r2,r2,3396
 1080cb0:	00c000c4 	movi	r3,3
 1080cb4:	80800f15 	stw	r2,60(r16)
 1080cb8:	80c0b915 	stw	r3,740(r16)
 1080cbc:	8200ba15 	stw	r8,744(r16)
 1080cc0:	84400e15 	stw	r17,56(r16)
 1080cc4:	8000b815 	stw	zero,736(r16)
 1080cc8:	1080bf80 	call	1080bf8 <std>
 1080ccc:	81000217 	ldw	r4,8(r16)
 1080cd0:	880d883a 	mov	r6,r17
 1080cd4:	800f883a 	mov	r7,r16
 1080cd8:	01400284 	movi	r5,10
 1080cdc:	1080bf80 	call	1080bf8 <std>
 1080ce0:	81000317 	ldw	r4,12(r16)
 1080ce4:	800f883a 	mov	r7,r16
 1080ce8:	01400484 	movi	r5,18
 1080cec:	01800084 	movi	r6,2
 1080cf0:	dfc00217 	ldw	ra,8(sp)
 1080cf4:	dc400117 	ldw	r17,4(sp)
 1080cf8:	dc000017 	ldw	r16,0(sp)
 1080cfc:	dec00304 	addi	sp,sp,12
 1080d00:	1080bf81 	jmpi	1080bf8 <std>

01080d04 <__fp_lock>:
 1080d04:	0005883a 	mov	r2,zero
 1080d08:	f800283a 	ret

01080d0c <__fp_unlock>:
 1080d0c:	0005883a 	mov	r2,zero
 1080d10:	f800283a 	ret

01080d14 <__fp_unlock_all>:
 1080d14:	00804274 	movhi	r2,265
 1080d18:	10b4a204 	addi	r2,r2,-11640
 1080d1c:	11000017 	ldw	r4,0(r2)
 1080d20:	01404234 	movhi	r5,264
 1080d24:	29434304 	addi	r5,r5,3340
 1080d28:	10818901 	jmpi	1081890 <_fwalk>

01080d2c <__fp_lock_all>:
 1080d2c:	00804274 	movhi	r2,265
 1080d30:	10b4a204 	addi	r2,r2,-11640
 1080d34:	11000017 	ldw	r4,0(r2)
 1080d38:	01404234 	movhi	r5,264
 1080d3c:	29434104 	addi	r5,r5,3332
 1080d40:	10818901 	jmpi	1081890 <_fwalk>

01080d44 <_cleanup_r>:
 1080d44:	01404234 	movhi	r5,264
 1080d48:	294bb004 	addi	r5,r5,11968
 1080d4c:	10818901 	jmpi	1081890 <_fwalk>

01080d50 <_cleanup>:
 1080d50:	00804274 	movhi	r2,265
 1080d54:	10b4a304 	addi	r2,r2,-11636
 1080d58:	11000017 	ldw	r4,0(r2)
 1080d5c:	1080d441 	jmpi	1080d44 <_cleanup_r>

01080d60 <__sfmoreglue>:
 1080d60:	defffc04 	addi	sp,sp,-16
 1080d64:	dc000015 	stw	r16,0(sp)
 1080d68:	2821883a 	mov	r16,r5
 1080d6c:	dc400115 	stw	r17,4(sp)
 1080d70:	01401704 	movi	r5,92
 1080d74:	2023883a 	mov	r17,r4
 1080d78:	8009883a 	mov	r4,r16
 1080d7c:	dfc00315 	stw	ra,12(sp)
 1080d80:	dcc00215 	stw	r19,8(sp)
 1080d84:	10830a80 	call	10830a8 <__mulsi3>
 1080d88:	11400304 	addi	r5,r2,12
 1080d8c:	8809883a 	mov	r4,r17
 1080d90:	1027883a 	mov	r19,r2
 1080d94:	1081adc0 	call	1081adc <_malloc_r>
 1080d98:	10c00304 	addi	r3,r2,12
 1080d9c:	1023883a 	mov	r17,r2
 1080da0:	1809883a 	mov	r4,r3
 1080da4:	980d883a 	mov	r6,r19
 1080da8:	000b883a 	mov	r5,zero
 1080dac:	10000b26 	beq	r2,zero,1080ddc <__sfmoreglue+0x7c>
 1080db0:	14000115 	stw	r16,4(r2)
 1080db4:	10c00215 	stw	r3,8(r2)
 1080db8:	10000015 	stw	zero,0(r2)
 1080dbc:	10824800 	call	1082480 <memset>
 1080dc0:	8805883a 	mov	r2,r17
 1080dc4:	dfc00317 	ldw	ra,12(sp)
 1080dc8:	dcc00217 	ldw	r19,8(sp)
 1080dcc:	dc400117 	ldw	r17,4(sp)
 1080dd0:	dc000017 	ldw	r16,0(sp)
 1080dd4:	dec00404 	addi	sp,sp,16
 1080dd8:	f800283a 	ret
 1080ddc:	0023883a 	mov	r17,zero
 1080de0:	8805883a 	mov	r2,r17
 1080de4:	dfc00317 	ldw	ra,12(sp)
 1080de8:	dcc00217 	ldw	r19,8(sp)
 1080dec:	dc400117 	ldw	r17,4(sp)
 1080df0:	dc000017 	ldw	r16,0(sp)
 1080df4:	dec00404 	addi	sp,sp,16
 1080df8:	f800283a 	ret

01080dfc <__sfp>:
 1080dfc:	defffd04 	addi	sp,sp,-12
 1080e00:	00804274 	movhi	r2,265
 1080e04:	10b4a304 	addi	r2,r2,-11636
 1080e08:	dc000015 	stw	r16,0(sp)
 1080e0c:	14000017 	ldw	r16,0(r2)
 1080e10:	dc400115 	stw	r17,4(sp)
 1080e14:	dfc00215 	stw	ra,8(sp)
 1080e18:	80800e17 	ldw	r2,56(r16)
 1080e1c:	2023883a 	mov	r17,r4
 1080e20:	10002626 	beq	r2,zero,1080ebc <__sfp+0xc0>
 1080e24:	8400b804 	addi	r16,r16,736
 1080e28:	80800117 	ldw	r2,4(r16)
 1080e2c:	81000217 	ldw	r4,8(r16)
 1080e30:	10ffffc4 	addi	r3,r2,-1
 1080e34:	18000916 	blt	r3,zero,1080e5c <__sfp+0x60>
 1080e38:	2080030f 	ldh	r2,12(r4)
 1080e3c:	10000b26 	beq	r2,zero,1080e6c <__sfp+0x70>
 1080e40:	017fffc4 	movi	r5,-1
 1080e44:	00000206 	br	1080e50 <__sfp+0x54>
 1080e48:	2080030f 	ldh	r2,12(r4)
 1080e4c:	10000726 	beq	r2,zero,1080e6c <__sfp+0x70>
 1080e50:	18ffffc4 	addi	r3,r3,-1
 1080e54:	21001704 	addi	r4,r4,92
 1080e58:	197ffb1e 	bne	r3,r5,1080e48 <__sfp+0x4c>
 1080e5c:	80800017 	ldw	r2,0(r16)
 1080e60:	10001926 	beq	r2,zero,1080ec8 <__sfp+0xcc>
 1080e64:	1021883a 	mov	r16,r2
 1080e68:	003fef06 	br	1080e28 <__sfp+0x2c>
 1080e6c:	00bfffc4 	movi	r2,-1
 1080e70:	00c00044 	movi	r3,1
 1080e74:	2080038d 	sth	r2,14(r4)
 1080e78:	20c0030d 	sth	r3,12(r4)
 1080e7c:	20000015 	stw	zero,0(r4)
 1080e80:	20000215 	stw	zero,8(r4)
 1080e84:	20000115 	stw	zero,4(r4)
 1080e88:	20000415 	stw	zero,16(r4)
 1080e8c:	20000515 	stw	zero,20(r4)
 1080e90:	20000615 	stw	zero,24(r4)
 1080e94:	20000c15 	stw	zero,48(r4)
 1080e98:	20000d15 	stw	zero,52(r4)
 1080e9c:	20001115 	stw	zero,68(r4)
 1080ea0:	20001215 	stw	zero,72(r4)
 1080ea4:	2005883a 	mov	r2,r4
 1080ea8:	dfc00217 	ldw	ra,8(sp)
 1080eac:	dc400117 	ldw	r17,4(sp)
 1080eb0:	dc000017 	ldw	r16,0(sp)
 1080eb4:	dec00304 	addi	sp,sp,12
 1080eb8:	f800283a 	ret
 1080ebc:	8009883a 	mov	r4,r16
 1080ec0:	1080c600 	call	1080c60 <__sinit>
 1080ec4:	003fd706 	br	1080e24 <__sfp+0x28>
 1080ec8:	8809883a 	mov	r4,r17
 1080ecc:	01400104 	movi	r5,4
 1080ed0:	1080d600 	call	1080d60 <__sfmoreglue>
 1080ed4:	80800015 	stw	r2,0(r16)
 1080ed8:	103fe21e 	bne	r2,zero,1080e64 <__sfp+0x68>
 1080edc:	00800304 	movi	r2,12
 1080ee0:	0009883a 	mov	r4,zero
 1080ee4:	88800015 	stw	r2,0(r17)
 1080ee8:	003fee06 	br	1080ea4 <__sfp+0xa8>

01080eec <_malloc_trim_r>:
 1080eec:	defffb04 	addi	sp,sp,-20
 1080ef0:	dcc00315 	stw	r19,12(sp)
 1080ef4:	04c04274 	movhi	r19,265
 1080ef8:	9cef1b04 	addi	r19,r19,-17300
 1080efc:	dc800215 	stw	r18,8(sp)
 1080f00:	dc400115 	stw	r17,4(sp)
 1080f04:	dc000015 	stw	r16,0(sp)
 1080f08:	2823883a 	mov	r17,r5
 1080f0c:	2025883a 	mov	r18,r4
 1080f10:	dfc00415 	stw	ra,16(sp)
 1080f14:	108381c0 	call	108381c <__malloc_lock>
 1080f18:	98800217 	ldw	r2,8(r19)
 1080f1c:	9009883a 	mov	r4,r18
 1080f20:	000b883a 	mov	r5,zero
 1080f24:	10c00117 	ldw	r3,4(r2)
 1080f28:	00bfff04 	movi	r2,-4
 1080f2c:	18a0703a 	and	r16,r3,r2
 1080f30:	8463c83a 	sub	r17,r16,r17
 1080f34:	8c43fbc4 	addi	r17,r17,4079
 1080f38:	8822d33a 	srli	r17,r17,12
 1080f3c:	0083ffc4 	movi	r2,4095
 1080f40:	8c7fffc4 	addi	r17,r17,-1
 1080f44:	8822933a 	slli	r17,r17,12
 1080f48:	1440060e 	bge	r2,r17,1080f64 <_malloc_trim_r+0x78>
 1080f4c:	1082b0c0 	call	1082b0c <_sbrk_r>
 1080f50:	98c00217 	ldw	r3,8(r19)
 1080f54:	9009883a 	mov	r4,r18
 1080f58:	044bc83a 	sub	r5,zero,r17
 1080f5c:	80c7883a 	add	r3,r16,r3
 1080f60:	10c00926 	beq	r2,r3,1080f88 <_malloc_trim_r+0x9c>
 1080f64:	10837c00 	call	10837c0 <__malloc_unlock>
 1080f68:	0005883a 	mov	r2,zero
 1080f6c:	dfc00417 	ldw	ra,16(sp)
 1080f70:	dcc00317 	ldw	r19,12(sp)
 1080f74:	dc800217 	ldw	r18,8(sp)
 1080f78:	dc400117 	ldw	r17,4(sp)
 1080f7c:	dc000017 	ldw	r16,0(sp)
 1080f80:	dec00504 	addi	sp,sp,20
 1080f84:	f800283a 	ret
 1080f88:	9009883a 	mov	r4,r18
 1080f8c:	1082b0c0 	call	1082b0c <_sbrk_r>
 1080f90:	844dc83a 	sub	r6,r16,r17
 1080f94:	00ffffc4 	movi	r3,-1
 1080f98:	9009883a 	mov	r4,r18
 1080f9c:	000b883a 	mov	r5,zero
 1080fa0:	01c04274 	movhi	r7,265
 1080fa4:	39fbb004 	addi	r7,r7,-4416
 1080fa8:	31800054 	ori	r6,r6,1
 1080fac:	10c00926 	beq	r2,r3,1080fd4 <_malloc_trim_r+0xe8>
 1080fb0:	38800017 	ldw	r2,0(r7)
 1080fb4:	98c00217 	ldw	r3,8(r19)
 1080fb8:	9009883a 	mov	r4,r18
 1080fbc:	1445c83a 	sub	r2,r2,r17
 1080fc0:	38800015 	stw	r2,0(r7)
 1080fc4:	19800115 	stw	r6,4(r3)
 1080fc8:	10837c00 	call	10837c0 <__malloc_unlock>
 1080fcc:	00800044 	movi	r2,1
 1080fd0:	003fe606 	br	1080f6c <_malloc_trim_r+0x80>
 1080fd4:	1082b0c0 	call	1082b0c <_sbrk_r>
 1080fd8:	99800217 	ldw	r6,8(r19)
 1080fdc:	100f883a 	mov	r7,r2
 1080fe0:	9009883a 	mov	r4,r18
 1080fe4:	1187c83a 	sub	r3,r2,r6
 1080fe8:	008003c4 	movi	r2,15
 1080fec:	19400054 	ori	r5,r3,1
 1080ff0:	10ffdc0e 	bge	r2,r3,1080f64 <_malloc_trim_r+0x78>
 1080ff4:	00804274 	movhi	r2,265
 1080ff8:	10b4a504 	addi	r2,r2,-11628
 1080ffc:	10c00017 	ldw	r3,0(r2)
 1081000:	00804274 	movhi	r2,265
 1081004:	10bbb004 	addi	r2,r2,-4416
 1081008:	31400115 	stw	r5,4(r6)
 108100c:	38c7c83a 	sub	r3,r7,r3
 1081010:	10c00015 	stw	r3,0(r2)
 1081014:	003fd306 	br	1080f64 <_malloc_trim_r+0x78>

01081018 <_free_r>:
 1081018:	defffd04 	addi	sp,sp,-12
 108101c:	dc400115 	stw	r17,4(sp)
 1081020:	dc000015 	stw	r16,0(sp)
 1081024:	dfc00215 	stw	ra,8(sp)
 1081028:	2821883a 	mov	r16,r5
 108102c:	2023883a 	mov	r17,r4
 1081030:	28005a26 	beq	r5,zero,108119c <_free_r+0x184>
 1081034:	108381c0 	call	108381c <__malloc_lock>
 1081038:	823ffe04 	addi	r8,r16,-8
 108103c:	41400117 	ldw	r5,4(r8)
 1081040:	00bfff84 	movi	r2,-2
 1081044:	02804274 	movhi	r10,265
 1081048:	52af1b04 	addi	r10,r10,-17300
 108104c:	288e703a 	and	r7,r5,r2
 1081050:	41cd883a 	add	r6,r8,r7
 1081054:	30c00117 	ldw	r3,4(r6)
 1081058:	51000217 	ldw	r4,8(r10)
 108105c:	00bfff04 	movi	r2,-4
 1081060:	1892703a 	and	r9,r3,r2
 1081064:	5017883a 	mov	r11,r10
 1081068:	31006726 	beq	r6,r4,1081208 <_free_r+0x1f0>
 108106c:	2880004c 	andi	r2,r5,1
 1081070:	1005003a 	cmpeq	r2,r2,zero
 1081074:	32400115 	stw	r9,4(r6)
 1081078:	10001a1e 	bne	r2,zero,10810e4 <_free_r+0xcc>
 108107c:	000b883a 	mov	r5,zero
 1081080:	3247883a 	add	r3,r6,r9
 1081084:	18800117 	ldw	r2,4(r3)
 1081088:	1080004c 	andi	r2,r2,1
 108108c:	1000231e 	bne	r2,zero,108111c <_free_r+0x104>
 1081090:	280ac03a 	cmpne	r5,r5,zero
 1081094:	3a4f883a 	add	r7,r7,r9
 1081098:	2800451e 	bne	r5,zero,10811b0 <_free_r+0x198>
 108109c:	31000217 	ldw	r4,8(r6)
 10810a0:	00804274 	movhi	r2,265
 10810a4:	10af1d04 	addi	r2,r2,-17292
 10810a8:	20807b26 	beq	r4,r2,1081298 <_free_r+0x280>
 10810ac:	30800317 	ldw	r2,12(r6)
 10810b0:	3a07883a 	add	r3,r7,r8
 10810b4:	19c00015 	stw	r7,0(r3)
 10810b8:	11000215 	stw	r4,8(r2)
 10810bc:	20800315 	stw	r2,12(r4)
 10810c0:	38800054 	ori	r2,r7,1
 10810c4:	40800115 	stw	r2,4(r8)
 10810c8:	28001a26 	beq	r5,zero,1081134 <_free_r+0x11c>
 10810cc:	8809883a 	mov	r4,r17
 10810d0:	dfc00217 	ldw	ra,8(sp)
 10810d4:	dc400117 	ldw	r17,4(sp)
 10810d8:	dc000017 	ldw	r16,0(sp)
 10810dc:	dec00304 	addi	sp,sp,12
 10810e0:	10837c01 	jmpi	10837c0 <__malloc_unlock>
 10810e4:	80bffe17 	ldw	r2,-8(r16)
 10810e8:	50c00204 	addi	r3,r10,8
 10810ec:	4091c83a 	sub	r8,r8,r2
 10810f0:	41000217 	ldw	r4,8(r8)
 10810f4:	388f883a 	add	r7,r7,r2
 10810f8:	20c06126 	beq	r4,r3,1081280 <_free_r+0x268>
 10810fc:	40800317 	ldw	r2,12(r8)
 1081100:	3247883a 	add	r3,r6,r9
 1081104:	000b883a 	mov	r5,zero
 1081108:	11000215 	stw	r4,8(r2)
 108110c:	20800315 	stw	r2,12(r4)
 1081110:	18800117 	ldw	r2,4(r3)
 1081114:	1080004c 	andi	r2,r2,1
 1081118:	103fdd26 	beq	r2,zero,1081090 <_free_r+0x78>
 108111c:	38800054 	ori	r2,r7,1
 1081120:	3a07883a 	add	r3,r7,r8
 1081124:	280ac03a 	cmpne	r5,r5,zero
 1081128:	40800115 	stw	r2,4(r8)
 108112c:	19c00015 	stw	r7,0(r3)
 1081130:	283fe61e 	bne	r5,zero,10810cc <_free_r+0xb4>
 1081134:	00807fc4 	movi	r2,511
 1081138:	11c01f2e 	bgeu	r2,r7,10811b8 <_free_r+0x1a0>
 108113c:	3806d27a 	srli	r3,r7,9
 1081140:	1800481e 	bne	r3,zero,1081264 <_free_r+0x24c>
 1081144:	3804d0fa 	srli	r2,r7,3
 1081148:	100690fa 	slli	r3,r2,3
 108114c:	1acd883a 	add	r6,r3,r11
 1081150:	31400217 	ldw	r5,8(r6)
 1081154:	31405926 	beq	r6,r5,10812bc <_free_r+0x2a4>
 1081158:	28800117 	ldw	r2,4(r5)
 108115c:	00ffff04 	movi	r3,-4
 1081160:	10c4703a 	and	r2,r2,r3
 1081164:	3880022e 	bgeu	r7,r2,1081170 <_free_r+0x158>
 1081168:	29400217 	ldw	r5,8(r5)
 108116c:	317ffa1e 	bne	r6,r5,1081158 <_free_r+0x140>
 1081170:	29800317 	ldw	r6,12(r5)
 1081174:	41800315 	stw	r6,12(r8)
 1081178:	41400215 	stw	r5,8(r8)
 108117c:	8809883a 	mov	r4,r17
 1081180:	2a000315 	stw	r8,12(r5)
 1081184:	32000215 	stw	r8,8(r6)
 1081188:	dfc00217 	ldw	ra,8(sp)
 108118c:	dc400117 	ldw	r17,4(sp)
 1081190:	dc000017 	ldw	r16,0(sp)
 1081194:	dec00304 	addi	sp,sp,12
 1081198:	10837c01 	jmpi	10837c0 <__malloc_unlock>
 108119c:	dfc00217 	ldw	ra,8(sp)
 10811a0:	dc400117 	ldw	r17,4(sp)
 10811a4:	dc000017 	ldw	r16,0(sp)
 10811a8:	dec00304 	addi	sp,sp,12
 10811ac:	f800283a 	ret
 10811b0:	31000217 	ldw	r4,8(r6)
 10811b4:	003fbd06 	br	10810ac <_free_r+0x94>
 10811b8:	3806d0fa 	srli	r3,r7,3
 10811bc:	00800044 	movi	r2,1
 10811c0:	51400117 	ldw	r5,4(r10)
 10811c4:	180890fa 	slli	r4,r3,3
 10811c8:	1807d0ba 	srai	r3,r3,2
 10811cc:	22c9883a 	add	r4,r4,r11
 10811d0:	21800217 	ldw	r6,8(r4)
 10811d4:	10c4983a 	sll	r2,r2,r3
 10811d8:	41000315 	stw	r4,12(r8)
 10811dc:	41800215 	stw	r6,8(r8)
 10811e0:	288ab03a 	or	r5,r5,r2
 10811e4:	22000215 	stw	r8,8(r4)
 10811e8:	8809883a 	mov	r4,r17
 10811ec:	51400115 	stw	r5,4(r10)
 10811f0:	32000315 	stw	r8,12(r6)
 10811f4:	dfc00217 	ldw	ra,8(sp)
 10811f8:	dc400117 	ldw	r17,4(sp)
 10811fc:	dc000017 	ldw	r16,0(sp)
 1081200:	dec00304 	addi	sp,sp,12
 1081204:	10837c01 	jmpi	10837c0 <__malloc_unlock>
 1081208:	2880004c 	andi	r2,r5,1
 108120c:	3a4d883a 	add	r6,r7,r9
 1081210:	1000071e 	bne	r2,zero,1081230 <_free_r+0x218>
 1081214:	80bffe17 	ldw	r2,-8(r16)
 1081218:	4091c83a 	sub	r8,r8,r2
 108121c:	41000317 	ldw	r4,12(r8)
 1081220:	40c00217 	ldw	r3,8(r8)
 1081224:	308d883a 	add	r6,r6,r2
 1081228:	20c00215 	stw	r3,8(r4)
 108122c:	19000315 	stw	r4,12(r3)
 1081230:	00804274 	movhi	r2,265
 1081234:	10b4a404 	addi	r2,r2,-11632
 1081238:	11000017 	ldw	r4,0(r2)
 108123c:	30c00054 	ori	r3,r6,1
 1081240:	52000215 	stw	r8,8(r10)
 1081244:	40c00115 	stw	r3,4(r8)
 1081248:	313fa036 	bltu	r6,r4,10810cc <_free_r+0xb4>
 108124c:	00804274 	movhi	r2,265
 1081250:	10bb8604 	addi	r2,r2,-4584
 1081254:	11400017 	ldw	r5,0(r2)
 1081258:	8809883a 	mov	r4,r17
 108125c:	1080eec0 	call	1080eec <_malloc_trim_r>
 1081260:	003f9a06 	br	10810cc <_free_r+0xb4>
 1081264:	00800104 	movi	r2,4
 1081268:	10c0072e 	bgeu	r2,r3,1081288 <_free_r+0x270>
 108126c:	00800504 	movi	r2,20
 1081270:	10c01936 	bltu	r2,r3,10812d8 <_free_r+0x2c0>
 1081274:	188016c4 	addi	r2,r3,91
 1081278:	100690fa 	slli	r3,r2,3
 108127c:	003fb306 	br	108114c <_free_r+0x134>
 1081280:	01400044 	movi	r5,1
 1081284:	003f7e06 	br	1081080 <_free_r+0x68>
 1081288:	3804d1ba 	srli	r2,r7,6
 108128c:	10800e04 	addi	r2,r2,56
 1081290:	100690fa 	slli	r3,r2,3
 1081294:	003fad06 	br	108114c <_free_r+0x134>
 1081298:	22000315 	stw	r8,12(r4)
 108129c:	22000215 	stw	r8,8(r4)
 10812a0:	3a05883a 	add	r2,r7,r8
 10812a4:	38c00054 	ori	r3,r7,1
 10812a8:	11c00015 	stw	r7,0(r2)
 10812ac:	41000215 	stw	r4,8(r8)
 10812b0:	40c00115 	stw	r3,4(r8)
 10812b4:	41000315 	stw	r4,12(r8)
 10812b8:	003f8406 	br	10810cc <_free_r+0xb4>
 10812bc:	1005d0ba 	srai	r2,r2,2
 10812c0:	00c00044 	movi	r3,1
 10812c4:	51000117 	ldw	r4,4(r10)
 10812c8:	1886983a 	sll	r3,r3,r2
 10812cc:	20c8b03a 	or	r4,r4,r3
 10812d0:	51000115 	stw	r4,4(r10)
 10812d4:	003fa706 	br	1081174 <_free_r+0x15c>
 10812d8:	00801504 	movi	r2,84
 10812dc:	10c00436 	bltu	r2,r3,10812f0 <_free_r+0x2d8>
 10812e0:	3804d33a 	srli	r2,r7,12
 10812e4:	10801b84 	addi	r2,r2,110
 10812e8:	100690fa 	slli	r3,r2,3
 10812ec:	003f9706 	br	108114c <_free_r+0x134>
 10812f0:	00805504 	movi	r2,340
 10812f4:	10c00436 	bltu	r2,r3,1081308 <_free_r+0x2f0>
 10812f8:	3804d3fa 	srli	r2,r7,15
 10812fc:	10801dc4 	addi	r2,r2,119
 1081300:	100690fa 	slli	r3,r2,3
 1081304:	003f9106 	br	108114c <_free_r+0x134>
 1081308:	00815504 	movi	r2,1364
 108130c:	10c0032e 	bgeu	r2,r3,108131c <_free_r+0x304>
 1081310:	00801f84 	movi	r2,126
 1081314:	00c0fc04 	movi	r3,1008
 1081318:	003f8c06 	br	108114c <_free_r+0x134>
 108131c:	3804d4ba 	srli	r2,r7,18
 1081320:	10801f04 	addi	r2,r2,124
 1081324:	100690fa 	slli	r3,r2,3
 1081328:	003f8806 	br	108114c <_free_r+0x134>

0108132c <__sfvwrite_r>:
 108132c:	30800217 	ldw	r2,8(r6)
 1081330:	defff504 	addi	sp,sp,-44
 1081334:	df000915 	stw	fp,36(sp)
 1081338:	dd800715 	stw	r22,28(sp)
 108133c:	dc800315 	stw	r18,12(sp)
 1081340:	dfc00a15 	stw	ra,40(sp)
 1081344:	ddc00815 	stw	r23,32(sp)
 1081348:	dd400615 	stw	r21,24(sp)
 108134c:	dd000515 	stw	r20,20(sp)
 1081350:	dcc00415 	stw	r19,16(sp)
 1081354:	dc400215 	stw	r17,8(sp)
 1081358:	dc000115 	stw	r16,4(sp)
 108135c:	302d883a 	mov	r22,r6
 1081360:	2039883a 	mov	fp,r4
 1081364:	2825883a 	mov	r18,r5
 1081368:	10001c26 	beq	r2,zero,10813dc <__sfvwrite_r+0xb0>
 108136c:	29c0030b 	ldhu	r7,12(r5)
 1081370:	3880020c 	andi	r2,r7,8
 1081374:	10002726 	beq	r2,zero,1081414 <__sfvwrite_r+0xe8>
 1081378:	28800417 	ldw	r2,16(r5)
 108137c:	10002526 	beq	r2,zero,1081414 <__sfvwrite_r+0xe8>
 1081380:	3880008c 	andi	r2,r7,2
 1081384:	b5400017 	ldw	r21,0(r22)
 1081388:	10002826 	beq	r2,zero,108142c <__sfvwrite_r+0x100>
 108138c:	0021883a 	mov	r16,zero
 1081390:	0023883a 	mov	r17,zero
 1081394:	880d883a 	mov	r6,r17
 1081398:	e009883a 	mov	r4,fp
 108139c:	00810004 	movi	r2,1024
 10813a0:	80006e26 	beq	r16,zero,108155c <__sfvwrite_r+0x230>
 10813a4:	800f883a 	mov	r7,r16
 10813a8:	91400717 	ldw	r5,28(r18)
 10813ac:	1400012e 	bgeu	r2,r16,10813b4 <__sfvwrite_r+0x88>
 10813b0:	100f883a 	mov	r7,r2
 10813b4:	90c00917 	ldw	r3,36(r18)
 10813b8:	183ee83a 	callr	r3
 10813bc:	1007883a 	mov	r3,r2
 10813c0:	80a1c83a 	sub	r16,r16,r2
 10813c4:	88a3883a 	add	r17,r17,r2
 10813c8:	00806d0e 	bge	zero,r2,1081580 <__sfvwrite_r+0x254>
 10813cc:	b0800217 	ldw	r2,8(r22)
 10813d0:	10c5c83a 	sub	r2,r2,r3
 10813d4:	b0800215 	stw	r2,8(r22)
 10813d8:	103fee1e 	bne	r2,zero,1081394 <__sfvwrite_r+0x68>
 10813dc:	0009883a 	mov	r4,zero
 10813e0:	2005883a 	mov	r2,r4
 10813e4:	dfc00a17 	ldw	ra,40(sp)
 10813e8:	df000917 	ldw	fp,36(sp)
 10813ec:	ddc00817 	ldw	r23,32(sp)
 10813f0:	dd800717 	ldw	r22,28(sp)
 10813f4:	dd400617 	ldw	r21,24(sp)
 10813f8:	dd000517 	ldw	r20,20(sp)
 10813fc:	dcc00417 	ldw	r19,16(sp)
 1081400:	dc800317 	ldw	r18,12(sp)
 1081404:	dc400217 	ldw	r17,8(sp)
 1081408:	dc000117 	ldw	r16,4(sp)
 108140c:	dec00b04 	addi	sp,sp,44
 1081410:	f800283a 	ret
 1081414:	108088c0 	call	108088c <__swsetup_r>
 1081418:	1000e41e 	bne	r2,zero,10817ac <__sfvwrite_r+0x480>
 108141c:	91c0030b 	ldhu	r7,12(r18)
 1081420:	b5400017 	ldw	r21,0(r22)
 1081424:	3880008c 	andi	r2,r7,2
 1081428:	103fd81e 	bne	r2,zero,108138c <__sfvwrite_r+0x60>
 108142c:	3880004c 	andi	r2,r7,1
 1081430:	1005003a 	cmpeq	r2,r2,zero
 1081434:	10005726 	beq	r2,zero,1081594 <__sfvwrite_r+0x268>
 1081438:	0029883a 	mov	r20,zero
 108143c:	002f883a 	mov	r23,zero
 1081440:	a0004226 	beq	r20,zero,108154c <__sfvwrite_r+0x220>
 1081444:	3880800c 	andi	r2,r7,512
 1081448:	94000217 	ldw	r16,8(r18)
 108144c:	10008b26 	beq	r2,zero,108167c <__sfvwrite_r+0x350>
 1081450:	800d883a 	mov	r6,r16
 1081454:	a400a536 	bltu	r20,r16,10816ec <__sfvwrite_r+0x3c0>
 1081458:	3881200c 	andi	r2,r7,1152
 108145c:	10002726 	beq	r2,zero,10814fc <__sfvwrite_r+0x1d0>
 1081460:	90800517 	ldw	r2,20(r18)
 1081464:	92000417 	ldw	r8,16(r18)
 1081468:	91400017 	ldw	r5,0(r18)
 108146c:	1087883a 	add	r3,r2,r2
 1081470:	1887883a 	add	r3,r3,r2
 1081474:	1808d7fa 	srli	r4,r3,31
 1081478:	2a21c83a 	sub	r16,r5,r8
 108147c:	80800044 	addi	r2,r16,1
 1081480:	20c9883a 	add	r4,r4,r3
 1081484:	2027d07a 	srai	r19,r4,1
 1081488:	a085883a 	add	r2,r20,r2
 108148c:	980d883a 	mov	r6,r19
 1081490:	9880022e 	bgeu	r19,r2,108149c <__sfvwrite_r+0x170>
 1081494:	1027883a 	mov	r19,r2
 1081498:	100d883a 	mov	r6,r2
 108149c:	3881000c 	andi	r2,r7,1024
 10814a0:	1000b826 	beq	r2,zero,1081784 <__sfvwrite_r+0x458>
 10814a4:	300b883a 	mov	r5,r6
 10814a8:	e009883a 	mov	r4,fp
 10814ac:	1081adc0 	call	1081adc <_malloc_r>
 10814b0:	10003126 	beq	r2,zero,1081578 <__sfvwrite_r+0x24c>
 10814b4:	91400417 	ldw	r5,16(r18)
 10814b8:	1009883a 	mov	r4,r2
 10814bc:	800d883a 	mov	r6,r16
 10814c0:	1023883a 	mov	r17,r2
 10814c4:	10823000 	call	1082300 <memcpy>
 10814c8:	90c0030b 	ldhu	r3,12(r18)
 10814cc:	00beffc4 	movi	r2,-1025
 10814d0:	1886703a 	and	r3,r3,r2
 10814d4:	18c02014 	ori	r3,r3,128
 10814d8:	90c0030d 	sth	r3,12(r18)
 10814dc:	9c07c83a 	sub	r3,r19,r16
 10814e0:	8c05883a 	add	r2,r17,r16
 10814e4:	a00d883a 	mov	r6,r20
 10814e8:	a021883a 	mov	r16,r20
 10814ec:	90800015 	stw	r2,0(r18)
 10814f0:	90c00215 	stw	r3,8(r18)
 10814f4:	94400415 	stw	r17,16(r18)
 10814f8:	94c00515 	stw	r19,20(r18)
 10814fc:	91000017 	ldw	r4,0(r18)
 1081500:	b80b883a 	mov	r5,r23
 1081504:	a023883a 	mov	r17,r20
 1081508:	10823a00 	call	10823a0 <memmove>
 108150c:	90c00217 	ldw	r3,8(r18)
 1081510:	90800017 	ldw	r2,0(r18)
 1081514:	a027883a 	mov	r19,r20
 1081518:	1c07c83a 	sub	r3,r3,r16
 108151c:	1405883a 	add	r2,r2,r16
 1081520:	90c00215 	stw	r3,8(r18)
 1081524:	a021883a 	mov	r16,r20
 1081528:	90800015 	stw	r2,0(r18)
 108152c:	b0800217 	ldw	r2,8(r22)
 1081530:	1405c83a 	sub	r2,r2,r16
 1081534:	b0800215 	stw	r2,8(r22)
 1081538:	103fa826 	beq	r2,zero,10813dc <__sfvwrite_r+0xb0>
 108153c:	a469c83a 	sub	r20,r20,r17
 1081540:	91c0030b 	ldhu	r7,12(r18)
 1081544:	bcef883a 	add	r23,r23,r19
 1081548:	a03fbe1e 	bne	r20,zero,1081444 <__sfvwrite_r+0x118>
 108154c:	adc00017 	ldw	r23,0(r21)
 1081550:	ad000117 	ldw	r20,4(r21)
 1081554:	ad400204 	addi	r21,r21,8
 1081558:	003fb906 	br	1081440 <__sfvwrite_r+0x114>
 108155c:	ac400017 	ldw	r17,0(r21)
 1081560:	ac000117 	ldw	r16,4(r21)
 1081564:	ad400204 	addi	r21,r21,8
 1081568:	003f8a06 	br	1081394 <__sfvwrite_r+0x68>
 108156c:	91400417 	ldw	r5,16(r18)
 1081570:	e009883a 	mov	r4,fp
 1081574:	10810180 	call	1081018 <_free_r>
 1081578:	00800304 	movi	r2,12
 108157c:	e0800015 	stw	r2,0(fp)
 1081580:	9080030b 	ldhu	r2,12(r18)
 1081584:	013fffc4 	movi	r4,-1
 1081588:	10801014 	ori	r2,r2,64
 108158c:	9080030d 	sth	r2,12(r18)
 1081590:	003f9306 	br	10813e0 <__sfvwrite_r+0xb4>
 1081594:	0027883a 	mov	r19,zero
 1081598:	002f883a 	mov	r23,zero
 108159c:	d8000015 	stw	zero,0(sp)
 10815a0:	0029883a 	mov	r20,zero
 10815a4:	98001e26 	beq	r19,zero,1081620 <__sfvwrite_r+0x2f4>
 10815a8:	d8c00017 	ldw	r3,0(sp)
 10815ac:	1804c03a 	cmpne	r2,r3,zero
 10815b0:	10005e26 	beq	r2,zero,108172c <__sfvwrite_r+0x400>
 10815b4:	9821883a 	mov	r16,r19
 10815b8:	a4c0012e 	bgeu	r20,r19,10815c0 <__sfvwrite_r+0x294>
 10815bc:	a021883a 	mov	r16,r20
 10815c0:	91000017 	ldw	r4,0(r18)
 10815c4:	90800417 	ldw	r2,16(r18)
 10815c8:	91800217 	ldw	r6,8(r18)
 10815cc:	91c00517 	ldw	r7,20(r18)
 10815d0:	1100022e 	bgeu	r2,r4,10815dc <__sfvwrite_r+0x2b0>
 10815d4:	31e3883a 	add	r17,r6,r7
 10815d8:	8c001616 	blt	r17,r16,1081634 <__sfvwrite_r+0x308>
 10815dc:	81c03816 	blt	r16,r7,10816c0 <__sfvwrite_r+0x394>
 10815e0:	90c00917 	ldw	r3,36(r18)
 10815e4:	91400717 	ldw	r5,28(r18)
 10815e8:	e009883a 	mov	r4,fp
 10815ec:	b80d883a 	mov	r6,r23
 10815f0:	183ee83a 	callr	r3
 10815f4:	1023883a 	mov	r17,r2
 10815f8:	00bfe10e 	bge	zero,r2,1081580 <__sfvwrite_r+0x254>
 10815fc:	a469c83a 	sub	r20,r20,r17
 1081600:	a0001826 	beq	r20,zero,1081664 <__sfvwrite_r+0x338>
 1081604:	b0800217 	ldw	r2,8(r22)
 1081608:	1445c83a 	sub	r2,r2,r17
 108160c:	b0800215 	stw	r2,8(r22)
 1081610:	103f7226 	beq	r2,zero,10813dc <__sfvwrite_r+0xb0>
 1081614:	9c67c83a 	sub	r19,r19,r17
 1081618:	bc6f883a 	add	r23,r23,r17
 108161c:	983fe21e 	bne	r19,zero,10815a8 <__sfvwrite_r+0x27c>
 1081620:	adc00017 	ldw	r23,0(r21)
 1081624:	acc00117 	ldw	r19,4(r21)
 1081628:	ad400204 	addi	r21,r21,8
 108162c:	d8000015 	stw	zero,0(sp)
 1081630:	003fdc06 	br	10815a4 <__sfvwrite_r+0x278>
 1081634:	b80b883a 	mov	r5,r23
 1081638:	880d883a 	mov	r6,r17
 108163c:	10823a00 	call	10823a0 <memmove>
 1081640:	90c00017 	ldw	r3,0(r18)
 1081644:	e009883a 	mov	r4,fp
 1081648:	900b883a 	mov	r5,r18
 108164c:	1c47883a 	add	r3,r3,r17
 1081650:	90c00015 	stw	r3,0(r18)
 1081654:	10809c80 	call	10809c8 <_fflush_r>
 1081658:	103fc91e 	bne	r2,zero,1081580 <__sfvwrite_r+0x254>
 108165c:	a469c83a 	sub	r20,r20,r17
 1081660:	a03fe81e 	bne	r20,zero,1081604 <__sfvwrite_r+0x2d8>
 1081664:	e009883a 	mov	r4,fp
 1081668:	900b883a 	mov	r5,r18
 108166c:	10809c80 	call	10809c8 <_fflush_r>
 1081670:	103fc31e 	bne	r2,zero,1081580 <__sfvwrite_r+0x254>
 1081674:	d8000015 	stw	zero,0(sp)
 1081678:	003fe206 	br	1081604 <__sfvwrite_r+0x2d8>
 108167c:	91000017 	ldw	r4,0(r18)
 1081680:	90800417 	ldw	r2,16(r18)
 1081684:	1100022e 	bgeu	r2,r4,1081690 <__sfvwrite_r+0x364>
 1081688:	8023883a 	mov	r17,r16
 108168c:	85003136 	bltu	r16,r20,1081754 <__sfvwrite_r+0x428>
 1081690:	91c00517 	ldw	r7,20(r18)
 1081694:	a1c01836 	bltu	r20,r7,10816f8 <__sfvwrite_r+0x3cc>
 1081698:	90c00917 	ldw	r3,36(r18)
 108169c:	91400717 	ldw	r5,28(r18)
 10816a0:	e009883a 	mov	r4,fp
 10816a4:	b80d883a 	mov	r6,r23
 10816a8:	183ee83a 	callr	r3
 10816ac:	1021883a 	mov	r16,r2
 10816b0:	00bfb30e 	bge	zero,r2,1081580 <__sfvwrite_r+0x254>
 10816b4:	1023883a 	mov	r17,r2
 10816b8:	1027883a 	mov	r19,r2
 10816bc:	003f9b06 	br	108152c <__sfvwrite_r+0x200>
 10816c0:	b80b883a 	mov	r5,r23
 10816c4:	800d883a 	mov	r6,r16
 10816c8:	10823a00 	call	10823a0 <memmove>
 10816cc:	90c00217 	ldw	r3,8(r18)
 10816d0:	90800017 	ldw	r2,0(r18)
 10816d4:	8023883a 	mov	r17,r16
 10816d8:	1c07c83a 	sub	r3,r3,r16
 10816dc:	1405883a 	add	r2,r2,r16
 10816e0:	90c00215 	stw	r3,8(r18)
 10816e4:	90800015 	stw	r2,0(r18)
 10816e8:	003fc406 	br	10815fc <__sfvwrite_r+0x2d0>
 10816ec:	a00d883a 	mov	r6,r20
 10816f0:	a021883a 	mov	r16,r20
 10816f4:	003f8106 	br	10814fc <__sfvwrite_r+0x1d0>
 10816f8:	b80b883a 	mov	r5,r23
 10816fc:	a00d883a 	mov	r6,r20
 1081700:	10823a00 	call	10823a0 <memmove>
 1081704:	90c00217 	ldw	r3,8(r18)
 1081708:	90800017 	ldw	r2,0(r18)
 108170c:	a021883a 	mov	r16,r20
 1081710:	1d07c83a 	sub	r3,r3,r20
 1081714:	1505883a 	add	r2,r2,r20
 1081718:	a023883a 	mov	r17,r20
 108171c:	a027883a 	mov	r19,r20
 1081720:	90c00215 	stw	r3,8(r18)
 1081724:	90800015 	stw	r2,0(r18)
 1081728:	003f8006 	br	108152c <__sfvwrite_r+0x200>
 108172c:	b809883a 	mov	r4,r23
 1081730:	01400284 	movi	r5,10
 1081734:	980d883a 	mov	r6,r19
 1081738:	108221c0 	call	108221c <memchr>
 108173c:	10001726 	beq	r2,zero,108179c <__sfvwrite_r+0x470>
 1081740:	15c5c83a 	sub	r2,r2,r23
 1081744:	15000044 	addi	r20,r2,1
 1081748:	00800044 	movi	r2,1
 108174c:	d8800015 	stw	r2,0(sp)
 1081750:	003f9806 	br	10815b4 <__sfvwrite_r+0x288>
 1081754:	b80b883a 	mov	r5,r23
 1081758:	800d883a 	mov	r6,r16
 108175c:	10823a00 	call	10823a0 <memmove>
 1081760:	90c00017 	ldw	r3,0(r18)
 1081764:	e009883a 	mov	r4,fp
 1081768:	900b883a 	mov	r5,r18
 108176c:	1c07883a 	add	r3,r3,r16
 1081770:	90c00015 	stw	r3,0(r18)
 1081774:	8027883a 	mov	r19,r16
 1081778:	10809c80 	call	10809c8 <_fflush_r>
 108177c:	103f6b26 	beq	r2,zero,108152c <__sfvwrite_r+0x200>
 1081780:	003f7f06 	br	1081580 <__sfvwrite_r+0x254>
 1081784:	400b883a 	mov	r5,r8
 1081788:	e009883a 	mov	r4,fp
 108178c:	10825180 	call	1082518 <_realloc_r>
 1081790:	103f7626 	beq	r2,zero,108156c <__sfvwrite_r+0x240>
 1081794:	1023883a 	mov	r17,r2
 1081798:	003f5006 	br	10814dc <__sfvwrite_r+0x1b0>
 108179c:	00c00044 	movi	r3,1
 10817a0:	9d000044 	addi	r20,r19,1
 10817a4:	d8c00015 	stw	r3,0(sp)
 10817a8:	003f8206 	br	10815b4 <__sfvwrite_r+0x288>
 10817ac:	9080030b 	ldhu	r2,12(r18)
 10817b0:	00c00244 	movi	r3,9
 10817b4:	013fffc4 	movi	r4,-1
 10817b8:	10801014 	ori	r2,r2,64
 10817bc:	9080030d 	sth	r2,12(r18)
 10817c0:	e0c00015 	stw	r3,0(fp)
 10817c4:	003f0606 	br	10813e0 <__sfvwrite_r+0xb4>

010817c8 <_fwalk_reent>:
 10817c8:	defff704 	addi	sp,sp,-36
 10817cc:	dcc00315 	stw	r19,12(sp)
 10817d0:	24c0b804 	addi	r19,r4,736
 10817d4:	dd800615 	stw	r22,24(sp)
 10817d8:	dd400515 	stw	r21,20(sp)
 10817dc:	dfc00815 	stw	ra,32(sp)
 10817e0:	ddc00715 	stw	r23,28(sp)
 10817e4:	dd000415 	stw	r20,16(sp)
 10817e8:	dc800215 	stw	r18,8(sp)
 10817ec:	dc400115 	stw	r17,4(sp)
 10817f0:	dc000015 	stw	r16,0(sp)
 10817f4:	202b883a 	mov	r21,r4
 10817f8:	282d883a 	mov	r22,r5
 10817fc:	1080c500 	call	1080c50 <__sfp_lock_acquire>
 1081800:	98002126 	beq	r19,zero,1081888 <_fwalk_reent+0xc0>
 1081804:	002f883a 	mov	r23,zero
 1081808:	9c800117 	ldw	r18,4(r19)
 108180c:	9c000217 	ldw	r16,8(r19)
 1081810:	90bfffc4 	addi	r2,r18,-1
 1081814:	10000d16 	blt	r2,zero,108184c <_fwalk_reent+0x84>
 1081818:	0023883a 	mov	r17,zero
 108181c:	053fffc4 	movi	r20,-1
 1081820:	8080030f 	ldh	r2,12(r16)
 1081824:	8c400044 	addi	r17,r17,1
 1081828:	10000626 	beq	r2,zero,1081844 <_fwalk_reent+0x7c>
 108182c:	8080038f 	ldh	r2,14(r16)
 1081830:	800b883a 	mov	r5,r16
 1081834:	a809883a 	mov	r4,r21
 1081838:	15000226 	beq	r2,r20,1081844 <_fwalk_reent+0x7c>
 108183c:	b03ee83a 	callr	r22
 1081840:	b8aeb03a 	or	r23,r23,r2
 1081844:	84001704 	addi	r16,r16,92
 1081848:	947ff51e 	bne	r18,r17,1081820 <_fwalk_reent+0x58>
 108184c:	9cc00017 	ldw	r19,0(r19)
 1081850:	983fed1e 	bne	r19,zero,1081808 <_fwalk_reent+0x40>
 1081854:	1080c540 	call	1080c54 <__sfp_lock_release>
 1081858:	b805883a 	mov	r2,r23
 108185c:	dfc00817 	ldw	ra,32(sp)
 1081860:	ddc00717 	ldw	r23,28(sp)
 1081864:	dd800617 	ldw	r22,24(sp)
 1081868:	dd400517 	ldw	r21,20(sp)
 108186c:	dd000417 	ldw	r20,16(sp)
 1081870:	dcc00317 	ldw	r19,12(sp)
 1081874:	dc800217 	ldw	r18,8(sp)
 1081878:	dc400117 	ldw	r17,4(sp)
 108187c:	dc000017 	ldw	r16,0(sp)
 1081880:	dec00904 	addi	sp,sp,36
 1081884:	f800283a 	ret
 1081888:	002f883a 	mov	r23,zero
 108188c:	003ff106 	br	1081854 <_fwalk_reent+0x8c>

01081890 <_fwalk>:
 1081890:	defff804 	addi	sp,sp,-32
 1081894:	dcc00315 	stw	r19,12(sp)
 1081898:	24c0b804 	addi	r19,r4,736
 108189c:	dd400515 	stw	r21,20(sp)
 10818a0:	dfc00715 	stw	ra,28(sp)
 10818a4:	dd800615 	stw	r22,24(sp)
 10818a8:	dd000415 	stw	r20,16(sp)
 10818ac:	dc800215 	stw	r18,8(sp)
 10818b0:	dc400115 	stw	r17,4(sp)
 10818b4:	dc000015 	stw	r16,0(sp)
 10818b8:	282b883a 	mov	r21,r5
 10818bc:	1080c500 	call	1080c50 <__sfp_lock_acquire>
 10818c0:	98001f26 	beq	r19,zero,1081940 <_fwalk+0xb0>
 10818c4:	002d883a 	mov	r22,zero
 10818c8:	9c800117 	ldw	r18,4(r19)
 10818cc:	9c000217 	ldw	r16,8(r19)
 10818d0:	90bfffc4 	addi	r2,r18,-1
 10818d4:	10000c16 	blt	r2,zero,1081908 <_fwalk+0x78>
 10818d8:	0023883a 	mov	r17,zero
 10818dc:	053fffc4 	movi	r20,-1
 10818e0:	8080030f 	ldh	r2,12(r16)
 10818e4:	8c400044 	addi	r17,r17,1
 10818e8:	10000526 	beq	r2,zero,1081900 <_fwalk+0x70>
 10818ec:	8080038f 	ldh	r2,14(r16)
 10818f0:	8009883a 	mov	r4,r16
 10818f4:	15000226 	beq	r2,r20,1081900 <_fwalk+0x70>
 10818f8:	a83ee83a 	callr	r21
 10818fc:	b0acb03a 	or	r22,r22,r2
 1081900:	84001704 	addi	r16,r16,92
 1081904:	947ff61e 	bne	r18,r17,10818e0 <_fwalk+0x50>
 1081908:	9cc00017 	ldw	r19,0(r19)
 108190c:	983fee1e 	bne	r19,zero,10818c8 <_fwalk+0x38>
 1081910:	1080c540 	call	1080c54 <__sfp_lock_release>
 1081914:	b005883a 	mov	r2,r22
 1081918:	dfc00717 	ldw	ra,28(sp)
 108191c:	dd800617 	ldw	r22,24(sp)
 1081920:	dd400517 	ldw	r21,20(sp)
 1081924:	dd000417 	ldw	r20,16(sp)
 1081928:	dcc00317 	ldw	r19,12(sp)
 108192c:	dc800217 	ldw	r18,8(sp)
 1081930:	dc400117 	ldw	r17,4(sp)
 1081934:	dc000017 	ldw	r16,0(sp)
 1081938:	dec00804 	addi	sp,sp,32
 108193c:	f800283a 	ret
 1081940:	002d883a 	mov	r22,zero
 1081944:	003ff206 	br	1081910 <_fwalk+0x80>

01081948 <__smakebuf_r>:
 1081948:	2880030b 	ldhu	r2,12(r5)
 108194c:	deffed04 	addi	sp,sp,-76
 1081950:	dc401015 	stw	r17,64(sp)
 1081954:	1080008c 	andi	r2,r2,2
 1081958:	dc000f15 	stw	r16,60(sp)
 108195c:	dfc01215 	stw	ra,72(sp)
 1081960:	dc801115 	stw	r18,68(sp)
 1081964:	2821883a 	mov	r16,r5
 1081968:	2023883a 	mov	r17,r4
 108196c:	10000b26 	beq	r2,zero,108199c <__smakebuf_r+0x54>
 1081970:	28c010c4 	addi	r3,r5,67
 1081974:	00800044 	movi	r2,1
 1081978:	28800515 	stw	r2,20(r5)
 108197c:	28c00415 	stw	r3,16(r5)
 1081980:	28c00015 	stw	r3,0(r5)
 1081984:	dfc01217 	ldw	ra,72(sp)
 1081988:	dc801117 	ldw	r18,68(sp)
 108198c:	dc401017 	ldw	r17,64(sp)
 1081990:	dc000f17 	ldw	r16,60(sp)
 1081994:	dec01304 	addi	sp,sp,76
 1081998:	f800283a 	ret
 108199c:	2940038f 	ldh	r5,14(r5)
 10819a0:	28002116 	blt	r5,zero,1081a28 <__smakebuf_r+0xe0>
 10819a4:	d80d883a 	mov	r6,sp
 10819a8:	1082ed40 	call	1082ed4 <_fstat_r>
 10819ac:	10001e16 	blt	r2,zero,1081a28 <__smakebuf_r+0xe0>
 10819b0:	d8800117 	ldw	r2,4(sp)
 10819b4:	00e00014 	movui	r3,32768
 10819b8:	113c000c 	andi	r4,r2,61440
 10819bc:	20c03126 	beq	r4,r3,1081a84 <__smakebuf_r+0x13c>
 10819c0:	8080030b 	ldhu	r2,12(r16)
 10819c4:	00c80004 	movi	r3,8192
 10819c8:	10820014 	ori	r2,r2,2048
 10819cc:	8080030d 	sth	r2,12(r16)
 10819d0:	20c01e26 	beq	r4,r3,1081a4c <__smakebuf_r+0x104>
 10819d4:	04810004 	movi	r18,1024
 10819d8:	8809883a 	mov	r4,r17
 10819dc:	900b883a 	mov	r5,r18
 10819e0:	1081adc0 	call	1081adc <_malloc_r>
 10819e4:	1009883a 	mov	r4,r2
 10819e8:	10003126 	beq	r2,zero,1081ab0 <__smakebuf_r+0x168>
 10819ec:	80c0030b 	ldhu	r3,12(r16)
 10819f0:	00804234 	movhi	r2,264
 10819f4:	10835104 	addi	r2,r2,3396
 10819f8:	88800f15 	stw	r2,60(r17)
 10819fc:	18c02014 	ori	r3,r3,128
 1081a00:	84800515 	stw	r18,20(r16)
 1081a04:	80c0030d 	sth	r3,12(r16)
 1081a08:	81000415 	stw	r4,16(r16)
 1081a0c:	81000015 	stw	r4,0(r16)
 1081a10:	dfc01217 	ldw	ra,72(sp)
 1081a14:	dc801117 	ldw	r18,68(sp)
 1081a18:	dc401017 	ldw	r17,64(sp)
 1081a1c:	dc000f17 	ldw	r16,60(sp)
 1081a20:	dec01304 	addi	sp,sp,76
 1081a24:	f800283a 	ret
 1081a28:	80c0030b 	ldhu	r3,12(r16)
 1081a2c:	1880200c 	andi	r2,r3,128
 1081a30:	10000426 	beq	r2,zero,1081a44 <__smakebuf_r+0xfc>
 1081a34:	04801004 	movi	r18,64
 1081a38:	18820014 	ori	r2,r3,2048
 1081a3c:	8080030d 	sth	r2,12(r16)
 1081a40:	003fe506 	br	10819d8 <__smakebuf_r+0x90>
 1081a44:	04810004 	movi	r18,1024
 1081a48:	003ffb06 	br	1081a38 <__smakebuf_r+0xf0>
 1081a4c:	8140038f 	ldh	r5,14(r16)
 1081a50:	8809883a 	mov	r4,r17
 1081a54:	1082f480 	call	1082f48 <_isatty_r>
 1081a58:	103fde26 	beq	r2,zero,10819d4 <__smakebuf_r+0x8c>
 1081a5c:	8080030b 	ldhu	r2,12(r16)
 1081a60:	80c010c4 	addi	r3,r16,67
 1081a64:	04810004 	movi	r18,1024
 1081a68:	10800054 	ori	r2,r2,1
 1081a6c:	8080030d 	sth	r2,12(r16)
 1081a70:	00800044 	movi	r2,1
 1081a74:	80c00415 	stw	r3,16(r16)
 1081a78:	80800515 	stw	r2,20(r16)
 1081a7c:	80c00015 	stw	r3,0(r16)
 1081a80:	003fd506 	br	10819d8 <__smakebuf_r+0x90>
 1081a84:	80c00a17 	ldw	r3,40(r16)
 1081a88:	00804234 	movhi	r2,264
 1081a8c:	108ae104 	addi	r2,r2,11140
 1081a90:	18bfcb1e 	bne	r3,r2,10819c0 <__smakebuf_r+0x78>
 1081a94:	8080030b 	ldhu	r2,12(r16)
 1081a98:	00c10004 	movi	r3,1024
 1081a9c:	1825883a 	mov	r18,r3
 1081aa0:	10c4b03a 	or	r2,r2,r3
 1081aa4:	8080030d 	sth	r2,12(r16)
 1081aa8:	80c01315 	stw	r3,76(r16)
 1081aac:	003fca06 	br	10819d8 <__smakebuf_r+0x90>
 1081ab0:	8100030b 	ldhu	r4,12(r16)
 1081ab4:	2080800c 	andi	r2,r4,512
 1081ab8:	103fb21e 	bne	r2,zero,1081984 <__smakebuf_r+0x3c>
 1081abc:	80c010c4 	addi	r3,r16,67
 1081ac0:	21000094 	ori	r4,r4,2
 1081ac4:	00800044 	movi	r2,1
 1081ac8:	80800515 	stw	r2,20(r16)
 1081acc:	8100030d 	sth	r4,12(r16)
 1081ad0:	80c00415 	stw	r3,16(r16)
 1081ad4:	80c00015 	stw	r3,0(r16)
 1081ad8:	003faa06 	br	1081984 <__smakebuf_r+0x3c>

01081adc <_malloc_r>:
 1081adc:	defff604 	addi	sp,sp,-40
 1081ae0:	28c002c4 	addi	r3,r5,11
 1081ae4:	00800584 	movi	r2,22
 1081ae8:	dc800215 	stw	r18,8(sp)
 1081aec:	dfc00915 	stw	ra,36(sp)
 1081af0:	df000815 	stw	fp,32(sp)
 1081af4:	ddc00715 	stw	r23,28(sp)
 1081af8:	dd800615 	stw	r22,24(sp)
 1081afc:	dd400515 	stw	r21,20(sp)
 1081b00:	dd000415 	stw	r20,16(sp)
 1081b04:	dcc00315 	stw	r19,12(sp)
 1081b08:	dc400115 	stw	r17,4(sp)
 1081b0c:	dc000015 	stw	r16,0(sp)
 1081b10:	2025883a 	mov	r18,r4
 1081b14:	10c01236 	bltu	r2,r3,1081b60 <_malloc_r+0x84>
 1081b18:	04400404 	movi	r17,16
 1081b1c:	8940142e 	bgeu	r17,r5,1081b70 <_malloc_r+0x94>
 1081b20:	00800304 	movi	r2,12
 1081b24:	0007883a 	mov	r3,zero
 1081b28:	90800015 	stw	r2,0(r18)
 1081b2c:	1805883a 	mov	r2,r3
 1081b30:	dfc00917 	ldw	ra,36(sp)
 1081b34:	df000817 	ldw	fp,32(sp)
 1081b38:	ddc00717 	ldw	r23,28(sp)
 1081b3c:	dd800617 	ldw	r22,24(sp)
 1081b40:	dd400517 	ldw	r21,20(sp)
 1081b44:	dd000417 	ldw	r20,16(sp)
 1081b48:	dcc00317 	ldw	r19,12(sp)
 1081b4c:	dc800217 	ldw	r18,8(sp)
 1081b50:	dc400117 	ldw	r17,4(sp)
 1081b54:	dc000017 	ldw	r16,0(sp)
 1081b58:	dec00a04 	addi	sp,sp,40
 1081b5c:	f800283a 	ret
 1081b60:	00bffe04 	movi	r2,-8
 1081b64:	18a2703a 	and	r17,r3,r2
 1081b68:	883fed16 	blt	r17,zero,1081b20 <_malloc_r+0x44>
 1081b6c:	897fec36 	bltu	r17,r5,1081b20 <_malloc_r+0x44>
 1081b70:	9009883a 	mov	r4,r18
 1081b74:	108381c0 	call	108381c <__malloc_lock>
 1081b78:	00807dc4 	movi	r2,503
 1081b7c:	14402b2e 	bgeu	r2,r17,1081c2c <_malloc_r+0x150>
 1081b80:	8806d27a 	srli	r3,r17,9
 1081b84:	18003f1e 	bne	r3,zero,1081c84 <_malloc_r+0x1a8>
 1081b88:	880cd0fa 	srli	r6,r17,3
 1081b8c:	300490fa 	slli	r2,r6,3
 1081b90:	02c04274 	movhi	r11,265
 1081b94:	5aef1b04 	addi	r11,r11,-17300
 1081b98:	12cb883a 	add	r5,r2,r11
 1081b9c:	2c000317 	ldw	r16,12(r5)
 1081ba0:	580f883a 	mov	r7,r11
 1081ba4:	2c00041e 	bne	r5,r16,1081bb8 <_malloc_r+0xdc>
 1081ba8:	00000a06 	br	1081bd4 <_malloc_r+0xf8>
 1081bac:	1800860e 	bge	r3,zero,1081dc8 <_malloc_r+0x2ec>
 1081bb0:	84000317 	ldw	r16,12(r16)
 1081bb4:	2c000726 	beq	r5,r16,1081bd4 <_malloc_r+0xf8>
 1081bb8:	80800117 	ldw	r2,4(r16)
 1081bbc:	00ffff04 	movi	r3,-4
 1081bc0:	10c8703a 	and	r4,r2,r3
 1081bc4:	2447c83a 	sub	r3,r4,r17
 1081bc8:	008003c4 	movi	r2,15
 1081bcc:	10fff70e 	bge	r2,r3,1081bac <_malloc_r+0xd0>
 1081bd0:	31bfffc4 	addi	r6,r6,-1
 1081bd4:	32400044 	addi	r9,r6,1
 1081bd8:	02804274 	movhi	r10,265
 1081bdc:	52af1d04 	addi	r10,r10,-17292
 1081be0:	54000217 	ldw	r16,8(r10)
 1081be4:	8280a026 	beq	r16,r10,1081e68 <_malloc_r+0x38c>
 1081be8:	80800117 	ldw	r2,4(r16)
 1081bec:	00ffff04 	movi	r3,-4
 1081bf0:	10ca703a 	and	r5,r2,r3
 1081bf4:	2c4dc83a 	sub	r6,r5,r17
 1081bf8:	008003c4 	movi	r2,15
 1081bfc:	11808316 	blt	r2,r6,1081e0c <_malloc_r+0x330>
 1081c00:	52800315 	stw	r10,12(r10)
 1081c04:	52800215 	stw	r10,8(r10)
 1081c08:	30002916 	blt	r6,zero,1081cb0 <_malloc_r+0x1d4>
 1081c0c:	8147883a 	add	r3,r16,r5
 1081c10:	18800117 	ldw	r2,4(r3)
 1081c14:	9009883a 	mov	r4,r18
 1081c18:	10800054 	ori	r2,r2,1
 1081c1c:	18800115 	stw	r2,4(r3)
 1081c20:	10837c00 	call	10837c0 <__malloc_unlock>
 1081c24:	80c00204 	addi	r3,r16,8
 1081c28:	003fc006 	br	1081b2c <_malloc_r+0x50>
 1081c2c:	02c04274 	movhi	r11,265
 1081c30:	5aef1b04 	addi	r11,r11,-17300
 1081c34:	8ac5883a 	add	r2,r17,r11
 1081c38:	14000317 	ldw	r16,12(r2)
 1081c3c:	580f883a 	mov	r7,r11
 1081c40:	8806d0fa 	srli	r3,r17,3
 1081c44:	14006c26 	beq	r2,r16,1081df8 <_malloc_r+0x31c>
 1081c48:	80c00117 	ldw	r3,4(r16)
 1081c4c:	00bfff04 	movi	r2,-4
 1081c50:	81800317 	ldw	r6,12(r16)
 1081c54:	1886703a 	and	r3,r3,r2
 1081c58:	80c7883a 	add	r3,r16,r3
 1081c5c:	18800117 	ldw	r2,4(r3)
 1081c60:	81400217 	ldw	r5,8(r16)
 1081c64:	9009883a 	mov	r4,r18
 1081c68:	10800054 	ori	r2,r2,1
 1081c6c:	18800115 	stw	r2,4(r3)
 1081c70:	31400215 	stw	r5,8(r6)
 1081c74:	29800315 	stw	r6,12(r5)
 1081c78:	10837c00 	call	10837c0 <__malloc_unlock>
 1081c7c:	80c00204 	addi	r3,r16,8
 1081c80:	003faa06 	br	1081b2c <_malloc_r+0x50>
 1081c84:	00800104 	movi	r2,4
 1081c88:	10c0052e 	bgeu	r2,r3,1081ca0 <_malloc_r+0x1c4>
 1081c8c:	00800504 	movi	r2,20
 1081c90:	10c07836 	bltu	r2,r3,1081e74 <_malloc_r+0x398>
 1081c94:	198016c4 	addi	r6,r3,91
 1081c98:	300490fa 	slli	r2,r6,3
 1081c9c:	003fbc06 	br	1081b90 <_malloc_r+0xb4>
 1081ca0:	8804d1ba 	srli	r2,r17,6
 1081ca4:	11800e04 	addi	r6,r2,56
 1081ca8:	300490fa 	slli	r2,r6,3
 1081cac:	003fb806 	br	1081b90 <_malloc_r+0xb4>
 1081cb0:	00807fc4 	movi	r2,511
 1081cb4:	1140bb36 	bltu	r2,r5,1081fa4 <_malloc_r+0x4c8>
 1081cb8:	2806d0fa 	srli	r3,r5,3
 1081cbc:	573ffe04 	addi	fp,r10,-8
 1081cc0:	00800044 	movi	r2,1
 1081cc4:	180890fa 	slli	r4,r3,3
 1081cc8:	1807d0ba 	srai	r3,r3,2
 1081ccc:	e1c00117 	ldw	r7,4(fp)
 1081cd0:	5909883a 	add	r4,r11,r4
 1081cd4:	21400217 	ldw	r5,8(r4)
 1081cd8:	10c4983a 	sll	r2,r2,r3
 1081cdc:	81000315 	stw	r4,12(r16)
 1081ce0:	81400215 	stw	r5,8(r16)
 1081ce4:	388eb03a 	or	r7,r7,r2
 1081ce8:	2c000315 	stw	r16,12(r5)
 1081cec:	24000215 	stw	r16,8(r4)
 1081cf0:	e1c00115 	stw	r7,4(fp)
 1081cf4:	4807883a 	mov	r3,r9
 1081cf8:	4800cd16 	blt	r9,zero,1082030 <_malloc_r+0x554>
 1081cfc:	1807d0ba 	srai	r3,r3,2
 1081d00:	00800044 	movi	r2,1
 1081d04:	10c8983a 	sll	r4,r2,r3
 1081d08:	39004436 	bltu	r7,r4,1081e1c <_malloc_r+0x340>
 1081d0c:	21c4703a 	and	r2,r4,r7
 1081d10:	10000a1e 	bne	r2,zero,1081d3c <_malloc_r+0x260>
 1081d14:	2109883a 	add	r4,r4,r4
 1081d18:	00bfff04 	movi	r2,-4
 1081d1c:	4884703a 	and	r2,r9,r2
 1081d20:	3906703a 	and	r3,r7,r4
 1081d24:	12400104 	addi	r9,r2,4
 1081d28:	1800041e 	bne	r3,zero,1081d3c <_malloc_r+0x260>
 1081d2c:	2109883a 	add	r4,r4,r4
 1081d30:	3904703a 	and	r2,r7,r4
 1081d34:	4a400104 	addi	r9,r9,4
 1081d38:	103ffc26 	beq	r2,zero,1081d2c <_malloc_r+0x250>
 1081d3c:	480490fa 	slli	r2,r9,3
 1081d40:	4819883a 	mov	r12,r9
 1081d44:	023fff04 	movi	r8,-4
 1081d48:	589b883a 	add	r13,r11,r2
 1081d4c:	6807883a 	mov	r3,r13
 1081d50:	014003c4 	movi	r5,15
 1081d54:	1c000317 	ldw	r16,12(r3)
 1081d58:	1c00041e 	bne	r3,r16,1081d6c <_malloc_r+0x290>
 1081d5c:	0000a706 	br	1081ffc <_malloc_r+0x520>
 1081d60:	3000ab0e 	bge	r6,zero,1082010 <_malloc_r+0x534>
 1081d64:	84000317 	ldw	r16,12(r16)
 1081d68:	1c00a426 	beq	r3,r16,1081ffc <_malloc_r+0x520>
 1081d6c:	80800117 	ldw	r2,4(r16)
 1081d70:	1204703a 	and	r2,r2,r8
 1081d74:	144dc83a 	sub	r6,r2,r17
 1081d78:	29bff90e 	bge	r5,r6,1081d60 <_malloc_r+0x284>
 1081d7c:	81000317 	ldw	r4,12(r16)
 1081d80:	80c00217 	ldw	r3,8(r16)
 1081d84:	89400054 	ori	r5,r17,1
 1081d88:	8445883a 	add	r2,r16,r17
 1081d8c:	20c00215 	stw	r3,8(r4)
 1081d90:	19000315 	stw	r4,12(r3)
 1081d94:	81400115 	stw	r5,4(r16)
 1081d98:	1187883a 	add	r3,r2,r6
 1081d9c:	31000054 	ori	r4,r6,1
 1081da0:	50800315 	stw	r2,12(r10)
 1081da4:	50800215 	stw	r2,8(r10)
 1081da8:	19800015 	stw	r6,0(r3)
 1081dac:	11000115 	stw	r4,4(r2)
 1081db0:	12800215 	stw	r10,8(r2)
 1081db4:	12800315 	stw	r10,12(r2)
 1081db8:	9009883a 	mov	r4,r18
 1081dbc:	10837c00 	call	10837c0 <__malloc_unlock>
 1081dc0:	80c00204 	addi	r3,r16,8
 1081dc4:	003f5906 	br	1081b2c <_malloc_r+0x50>
 1081dc8:	8109883a 	add	r4,r16,r4
 1081dcc:	20800117 	ldw	r2,4(r4)
 1081dd0:	80c00217 	ldw	r3,8(r16)
 1081dd4:	81400317 	ldw	r5,12(r16)
 1081dd8:	10800054 	ori	r2,r2,1
 1081ddc:	20800115 	stw	r2,4(r4)
 1081de0:	28c00215 	stw	r3,8(r5)
 1081de4:	19400315 	stw	r5,12(r3)
 1081de8:	9009883a 	mov	r4,r18
 1081dec:	10837c00 	call	10837c0 <__malloc_unlock>
 1081df0:	80c00204 	addi	r3,r16,8
 1081df4:	003f4d06 	br	1081b2c <_malloc_r+0x50>
 1081df8:	80800204 	addi	r2,r16,8
 1081dfc:	14000317 	ldw	r16,12(r2)
 1081e00:	143f911e 	bne	r2,r16,1081c48 <_malloc_r+0x16c>
 1081e04:	1a400084 	addi	r9,r3,2
 1081e08:	003f7306 	br	1081bd8 <_malloc_r+0xfc>
 1081e0c:	88c00054 	ori	r3,r17,1
 1081e10:	8445883a 	add	r2,r16,r17
 1081e14:	80c00115 	stw	r3,4(r16)
 1081e18:	003fdf06 	br	1081d98 <_malloc_r+0x2bc>
 1081e1c:	e4000217 	ldw	r16,8(fp)
 1081e20:	00bfff04 	movi	r2,-4
 1081e24:	80c00117 	ldw	r3,4(r16)
 1081e28:	802d883a 	mov	r22,r16
 1081e2c:	18aa703a 	and	r21,r3,r2
 1081e30:	ac401636 	bltu	r21,r17,1081e8c <_malloc_r+0x3b0>
 1081e34:	ac49c83a 	sub	r4,r21,r17
 1081e38:	008003c4 	movi	r2,15
 1081e3c:	1100130e 	bge	r2,r4,1081e8c <_malloc_r+0x3b0>
 1081e40:	88800054 	ori	r2,r17,1
 1081e44:	8447883a 	add	r3,r16,r17
 1081e48:	80800115 	stw	r2,4(r16)
 1081e4c:	20800054 	ori	r2,r4,1
 1081e50:	18800115 	stw	r2,4(r3)
 1081e54:	e0c00215 	stw	r3,8(fp)
 1081e58:	9009883a 	mov	r4,r18
 1081e5c:	10837c00 	call	10837c0 <__malloc_unlock>
 1081e60:	80c00204 	addi	r3,r16,8
 1081e64:	003f3106 	br	1081b2c <_malloc_r+0x50>
 1081e68:	39c00117 	ldw	r7,4(r7)
 1081e6c:	573ffe04 	addi	fp,r10,-8
 1081e70:	003fa006 	br	1081cf4 <_malloc_r+0x218>
 1081e74:	00801504 	movi	r2,84
 1081e78:	10c06736 	bltu	r2,r3,1082018 <_malloc_r+0x53c>
 1081e7c:	8804d33a 	srli	r2,r17,12
 1081e80:	11801b84 	addi	r6,r2,110
 1081e84:	300490fa 	slli	r2,r6,3
 1081e88:	003f4106 	br	1081b90 <_malloc_r+0xb4>
 1081e8c:	d0a6e417 	ldw	r2,-25712(gp)
 1081e90:	d0e00317 	ldw	r3,-32756(gp)
 1081e94:	053fffc4 	movi	r20,-1
 1081e98:	10800404 	addi	r2,r2,16
 1081e9c:	88a7883a 	add	r19,r17,r2
 1081ea0:	1d000326 	beq	r3,r20,1081eb0 <_malloc_r+0x3d4>
 1081ea4:	98c3ffc4 	addi	r3,r19,4095
 1081ea8:	00bc0004 	movi	r2,-4096
 1081eac:	18a6703a 	and	r19,r3,r2
 1081eb0:	9009883a 	mov	r4,r18
 1081eb4:	980b883a 	mov	r5,r19
 1081eb8:	1082b0c0 	call	1082b0c <_sbrk_r>
 1081ebc:	1009883a 	mov	r4,r2
 1081ec0:	15000426 	beq	r2,r20,1081ed4 <_malloc_r+0x3f8>
 1081ec4:	854b883a 	add	r5,r16,r21
 1081ec8:	1029883a 	mov	r20,r2
 1081ecc:	11405a2e 	bgeu	r2,r5,1082038 <_malloc_r+0x55c>
 1081ed0:	87000c26 	beq	r16,fp,1081f04 <_malloc_r+0x428>
 1081ed4:	e4000217 	ldw	r16,8(fp)
 1081ed8:	80c00117 	ldw	r3,4(r16)
 1081edc:	00bfff04 	movi	r2,-4
 1081ee0:	1884703a 	and	r2,r3,r2
 1081ee4:	14400336 	bltu	r2,r17,1081ef4 <_malloc_r+0x418>
 1081ee8:	1449c83a 	sub	r4,r2,r17
 1081eec:	008003c4 	movi	r2,15
 1081ef0:	113fd316 	blt	r2,r4,1081e40 <_malloc_r+0x364>
 1081ef4:	9009883a 	mov	r4,r18
 1081ef8:	10837c00 	call	10837c0 <__malloc_unlock>
 1081efc:	0007883a 	mov	r3,zero
 1081f00:	003f0a06 	br	1081b2c <_malloc_r+0x50>
 1081f04:	05c04274 	movhi	r23,265
 1081f08:	bdfbb004 	addi	r23,r23,-4416
 1081f0c:	b8800017 	ldw	r2,0(r23)
 1081f10:	988d883a 	add	r6,r19,r2
 1081f14:	b9800015 	stw	r6,0(r23)
 1081f18:	d0e00317 	ldw	r3,-32756(gp)
 1081f1c:	00bfffc4 	movi	r2,-1
 1081f20:	18808e26 	beq	r3,r2,108215c <_malloc_r+0x680>
 1081f24:	2145c83a 	sub	r2,r4,r5
 1081f28:	3085883a 	add	r2,r6,r2
 1081f2c:	b8800015 	stw	r2,0(r23)
 1081f30:	20c001cc 	andi	r3,r4,7
 1081f34:	18005f1e 	bne	r3,zero,10820b4 <_malloc_r+0x5d8>
 1081f38:	000b883a 	mov	r5,zero
 1081f3c:	a4c5883a 	add	r2,r20,r19
 1081f40:	1083ffcc 	andi	r2,r2,4095
 1081f44:	00c40004 	movi	r3,4096
 1081f48:	1887c83a 	sub	r3,r3,r2
 1081f4c:	28e7883a 	add	r19,r5,r3
 1081f50:	9009883a 	mov	r4,r18
 1081f54:	980b883a 	mov	r5,r19
 1081f58:	1082b0c0 	call	1082b0c <_sbrk_r>
 1081f5c:	1007883a 	mov	r3,r2
 1081f60:	00bfffc4 	movi	r2,-1
 1081f64:	18807a26 	beq	r3,r2,1082150 <_malloc_r+0x674>
 1081f68:	1d05c83a 	sub	r2,r3,r20
 1081f6c:	9885883a 	add	r2,r19,r2
 1081f70:	10c00054 	ori	r3,r2,1
 1081f74:	b8800017 	ldw	r2,0(r23)
 1081f78:	a021883a 	mov	r16,r20
 1081f7c:	a0c00115 	stw	r3,4(r20)
 1081f80:	9885883a 	add	r2,r19,r2
 1081f84:	b8800015 	stw	r2,0(r23)
 1081f88:	e5000215 	stw	r20,8(fp)
 1081f8c:	b7003626 	beq	r22,fp,1082068 <_malloc_r+0x58c>
 1081f90:	018003c4 	movi	r6,15
 1081f94:	35404b36 	bltu	r6,r21,10820c4 <_malloc_r+0x5e8>
 1081f98:	00800044 	movi	r2,1
 1081f9c:	a0800115 	stw	r2,4(r20)
 1081fa0:	003fcd06 	br	1081ed8 <_malloc_r+0x3fc>
 1081fa4:	2808d27a 	srli	r4,r5,9
 1081fa8:	2000371e 	bne	r4,zero,1082088 <_malloc_r+0x5ac>
 1081fac:	2808d0fa 	srli	r4,r5,3
 1081fb0:	200690fa 	slli	r3,r4,3
 1081fb4:	1ad1883a 	add	r8,r3,r11
 1081fb8:	41800217 	ldw	r6,8(r8)
 1081fbc:	41805b26 	beq	r8,r6,108212c <_malloc_r+0x650>
 1081fc0:	30800117 	ldw	r2,4(r6)
 1081fc4:	00ffff04 	movi	r3,-4
 1081fc8:	10c4703a 	and	r2,r2,r3
 1081fcc:	2880022e 	bgeu	r5,r2,1081fd8 <_malloc_r+0x4fc>
 1081fd0:	31800217 	ldw	r6,8(r6)
 1081fd4:	41bffa1e 	bne	r8,r6,1081fc0 <_malloc_r+0x4e4>
 1081fd8:	32000317 	ldw	r8,12(r6)
 1081fdc:	39c00117 	ldw	r7,4(r7)
 1081fe0:	82000315 	stw	r8,12(r16)
 1081fe4:	81800215 	stw	r6,8(r16)
 1081fe8:	07004274 	movhi	fp,265
 1081fec:	e72f1b04 	addi	fp,fp,-17300
 1081ff0:	34000315 	stw	r16,12(r6)
 1081ff4:	44000215 	stw	r16,8(r8)
 1081ff8:	003f3e06 	br	1081cf4 <_malloc_r+0x218>
 1081ffc:	63000044 	addi	r12,r12,1
 1082000:	608000cc 	andi	r2,r12,3
 1082004:	10005d26 	beq	r2,zero,108217c <_malloc_r+0x6a0>
 1082008:	18c00204 	addi	r3,r3,8
 108200c:	003f5106 	br	1081d54 <_malloc_r+0x278>
 1082010:	8089883a 	add	r4,r16,r2
 1082014:	003f6d06 	br	1081dcc <_malloc_r+0x2f0>
 1082018:	00805504 	movi	r2,340
 108201c:	10c02036 	bltu	r2,r3,10820a0 <_malloc_r+0x5c4>
 1082020:	8804d3fa 	srli	r2,r17,15
 1082024:	11801dc4 	addi	r6,r2,119
 1082028:	300490fa 	slli	r2,r6,3
 108202c:	003ed806 	br	1081b90 <_malloc_r+0xb4>
 1082030:	48c000c4 	addi	r3,r9,3
 1082034:	003f3106 	br	1081cfc <_malloc_r+0x220>
 1082038:	05c04274 	movhi	r23,265
 108203c:	bdfbb004 	addi	r23,r23,-4416
 1082040:	b8800017 	ldw	r2,0(r23)
 1082044:	988d883a 	add	r6,r19,r2
 1082048:	b9800015 	stw	r6,0(r23)
 108204c:	293fb21e 	bne	r5,r4,1081f18 <_malloc_r+0x43c>
 1082050:	2083ffcc 	andi	r2,r4,4095
 1082054:	103fb01e 	bne	r2,zero,1081f18 <_malloc_r+0x43c>
 1082058:	e4000217 	ldw	r16,8(fp)
 108205c:	9d45883a 	add	r2,r19,r21
 1082060:	10800054 	ori	r2,r2,1
 1082064:	80800115 	stw	r2,4(r16)
 1082068:	b8c00017 	ldw	r3,0(r23)
 108206c:	d0a6e517 	ldw	r2,-25708(gp)
 1082070:	10c0012e 	bgeu	r2,r3,1082078 <_malloc_r+0x59c>
 1082074:	d0e6e515 	stw	r3,-25708(gp)
 1082078:	d0a6e617 	ldw	r2,-25704(gp)
 108207c:	10ff962e 	bgeu	r2,r3,1081ed8 <_malloc_r+0x3fc>
 1082080:	d0e6e615 	stw	r3,-25704(gp)
 1082084:	003f9406 	br	1081ed8 <_malloc_r+0x3fc>
 1082088:	00800104 	movi	r2,4
 108208c:	11001e36 	bltu	r2,r4,1082108 <_malloc_r+0x62c>
 1082090:	2804d1ba 	srli	r2,r5,6
 1082094:	11000e04 	addi	r4,r2,56
 1082098:	200690fa 	slli	r3,r4,3
 108209c:	003fc506 	br	1081fb4 <_malloc_r+0x4d8>
 10820a0:	00815504 	movi	r2,1364
 10820a4:	10c01d2e 	bgeu	r2,r3,108211c <_malloc_r+0x640>
 10820a8:	01801f84 	movi	r6,126
 10820ac:	0080fc04 	movi	r2,1008
 10820b0:	003eb706 	br	1081b90 <_malloc_r+0xb4>
 10820b4:	00800204 	movi	r2,8
 10820b8:	10cbc83a 	sub	r5,r2,r3
 10820bc:	2169883a 	add	r20,r4,r5
 10820c0:	003f9e06 	br	1081f3c <_malloc_r+0x460>
 10820c4:	00bffe04 	movi	r2,-8
 10820c8:	a93ffd04 	addi	r4,r21,-12
 10820cc:	2088703a 	and	r4,r4,r2
 10820d0:	b10b883a 	add	r5,r22,r4
 10820d4:	00c00144 	movi	r3,5
 10820d8:	28c00215 	stw	r3,8(r5)
 10820dc:	28c00115 	stw	r3,4(r5)
 10820e0:	b0800117 	ldw	r2,4(r22)
 10820e4:	1080004c 	andi	r2,r2,1
 10820e8:	2084b03a 	or	r2,r4,r2
 10820ec:	b0800115 	stw	r2,4(r22)
 10820f0:	313fdd2e 	bgeu	r6,r4,1082068 <_malloc_r+0x58c>
 10820f4:	b1400204 	addi	r5,r22,8
 10820f8:	9009883a 	mov	r4,r18
 10820fc:	10810180 	call	1081018 <_free_r>
 1082100:	e4000217 	ldw	r16,8(fp)
 1082104:	003fd806 	br	1082068 <_malloc_r+0x58c>
 1082108:	00800504 	movi	r2,20
 108210c:	11001536 	bltu	r2,r4,1082164 <_malloc_r+0x688>
 1082110:	210016c4 	addi	r4,r4,91
 1082114:	200690fa 	slli	r3,r4,3
 1082118:	003fa606 	br	1081fb4 <_malloc_r+0x4d8>
 108211c:	8804d4ba 	srli	r2,r17,18
 1082120:	11801f04 	addi	r6,r2,124
 1082124:	300490fa 	slli	r2,r6,3
 1082128:	003e9906 	br	1081b90 <_malloc_r+0xb4>
 108212c:	2009d0ba 	srai	r4,r4,2
 1082130:	01404274 	movhi	r5,265
 1082134:	296f1b04 	addi	r5,r5,-17300
 1082138:	00c00044 	movi	r3,1
 108213c:	28800117 	ldw	r2,4(r5)
 1082140:	1906983a 	sll	r3,r3,r4
 1082144:	10c4b03a 	or	r2,r2,r3
 1082148:	28800115 	stw	r2,4(r5)
 108214c:	003fa306 	br	1081fdc <_malloc_r+0x500>
 1082150:	0027883a 	mov	r19,zero
 1082154:	00c00044 	movi	r3,1
 1082158:	003f8606 	br	1081f74 <_malloc_r+0x498>
 108215c:	d1200315 	stw	r4,-32756(gp)
 1082160:	003f7306 	br	1081f30 <_malloc_r+0x454>
 1082164:	00801504 	movi	r2,84
 1082168:	11001936 	bltu	r2,r4,10821d0 <_malloc_r+0x6f4>
 108216c:	2804d33a 	srli	r2,r5,12
 1082170:	11001b84 	addi	r4,r2,110
 1082174:	200690fa 	slli	r3,r4,3
 1082178:	003f8e06 	br	1081fb4 <_malloc_r+0x4d8>
 108217c:	480b883a 	mov	r5,r9
 1082180:	6807883a 	mov	r3,r13
 1082184:	288000cc 	andi	r2,r5,3
 1082188:	18fffe04 	addi	r3,r3,-8
 108218c:	297fffc4 	addi	r5,r5,-1
 1082190:	10001526 	beq	r2,zero,10821e8 <_malloc_r+0x70c>
 1082194:	18800217 	ldw	r2,8(r3)
 1082198:	10fffa26 	beq	r2,r3,1082184 <_malloc_r+0x6a8>
 108219c:	2109883a 	add	r4,r4,r4
 10821a0:	393f1e36 	bltu	r7,r4,1081e1c <_malloc_r+0x340>
 10821a4:	203f1d26 	beq	r4,zero,1081e1c <_malloc_r+0x340>
 10821a8:	21c4703a 	and	r2,r4,r7
 10821ac:	10000226 	beq	r2,zero,10821b8 <_malloc_r+0x6dc>
 10821b0:	6013883a 	mov	r9,r12
 10821b4:	003ee106 	br	1081d3c <_malloc_r+0x260>
 10821b8:	2109883a 	add	r4,r4,r4
 10821bc:	3904703a 	and	r2,r7,r4
 10821c0:	63000104 	addi	r12,r12,4
 10821c4:	103ffc26 	beq	r2,zero,10821b8 <_malloc_r+0x6dc>
 10821c8:	6013883a 	mov	r9,r12
 10821cc:	003edb06 	br	1081d3c <_malloc_r+0x260>
 10821d0:	00805504 	movi	r2,340
 10821d4:	11000836 	bltu	r2,r4,10821f8 <_malloc_r+0x71c>
 10821d8:	2804d3fa 	srli	r2,r5,15
 10821dc:	11001dc4 	addi	r4,r2,119
 10821e0:	200690fa 	slli	r3,r4,3
 10821e4:	003f7306 	br	1081fb4 <_malloc_r+0x4d8>
 10821e8:	0104303a 	nor	r2,zero,r4
 10821ec:	388e703a 	and	r7,r7,r2
 10821f0:	e1c00115 	stw	r7,4(fp)
 10821f4:	003fe906 	br	108219c <_malloc_r+0x6c0>
 10821f8:	00815504 	movi	r2,1364
 10821fc:	1100032e 	bgeu	r2,r4,108220c <_malloc_r+0x730>
 1082200:	01001f84 	movi	r4,126
 1082204:	00c0fc04 	movi	r3,1008
 1082208:	003f6a06 	br	1081fb4 <_malloc_r+0x4d8>
 108220c:	2804d4ba 	srli	r2,r5,18
 1082210:	11001f04 	addi	r4,r2,124
 1082214:	200690fa 	slli	r3,r4,3
 1082218:	003f6606 	br	1081fb4 <_malloc_r+0x4d8>

0108221c <memchr>:
 108221c:	008000c4 	movi	r2,3
 1082220:	29403fcc 	andi	r5,r5,255
 1082224:	2007883a 	mov	r3,r4
 1082228:	1180022e 	bgeu	r2,r6,1082234 <memchr+0x18>
 108222c:	2084703a 	and	r2,r4,r2
 1082230:	10000b26 	beq	r2,zero,1082260 <memchr+0x44>
 1082234:	313fffc4 	addi	r4,r6,-1
 1082238:	3000051e 	bne	r6,zero,1082250 <memchr+0x34>
 108223c:	00002c06 	br	10822f0 <memchr+0xd4>
 1082240:	213fffc4 	addi	r4,r4,-1
 1082244:	00bfffc4 	movi	r2,-1
 1082248:	18c00044 	addi	r3,r3,1
 108224c:	20802826 	beq	r4,r2,10822f0 <memchr+0xd4>
 1082250:	18800003 	ldbu	r2,0(r3)
 1082254:	28bffa1e 	bne	r5,r2,1082240 <memchr+0x24>
 1082258:	1805883a 	mov	r2,r3
 108225c:	f800283a 	ret
 1082260:	0011883a 	mov	r8,zero
 1082264:	0007883a 	mov	r3,zero
 1082268:	01c00104 	movi	r7,4
 108226c:	4004923a 	slli	r2,r8,8
 1082270:	18c00044 	addi	r3,r3,1
 1082274:	1151883a 	add	r8,r2,r5
 1082278:	19fffc1e 	bne	r3,r7,108226c <memchr+0x50>
 108227c:	02bfbff4 	movhi	r10,65279
 1082280:	52bfbfc4 	addi	r10,r10,-257
 1082284:	02602074 	movhi	r9,32897
 1082288:	4a602004 	addi	r9,r9,-32640
 108228c:	02c000c4 	movi	r11,3
 1082290:	20800017 	ldw	r2,0(r4)
 1082294:	31bfff04 	addi	r6,r6,-4
 1082298:	200f883a 	mov	r7,r4
 108229c:	1204f03a 	xor	r2,r2,r8
 10822a0:	1287883a 	add	r3,r2,r10
 10822a4:	1a46703a 	and	r3,r3,r9
 10822a8:	0084303a 	nor	r2,zero,r2
 10822ac:	10c4703a 	and	r2,r2,r3
 10822b0:	10000b26 	beq	r2,zero,10822e0 <memchr+0xc4>
 10822b4:	20800003 	ldbu	r2,0(r4)
 10822b8:	28800f26 	beq	r5,r2,10822f8 <memchr+0xdc>
 10822bc:	20800043 	ldbu	r2,1(r4)
 10822c0:	21c00044 	addi	r7,r4,1
 10822c4:	28800c26 	beq	r5,r2,10822f8 <memchr+0xdc>
 10822c8:	20800083 	ldbu	r2,2(r4)
 10822cc:	21c00084 	addi	r7,r4,2
 10822d0:	28800926 	beq	r5,r2,10822f8 <memchr+0xdc>
 10822d4:	208000c3 	ldbu	r2,3(r4)
 10822d8:	21c000c4 	addi	r7,r4,3
 10822dc:	28800626 	beq	r5,r2,10822f8 <memchr+0xdc>
 10822e0:	21000104 	addi	r4,r4,4
 10822e4:	59bfea36 	bltu	r11,r6,1082290 <memchr+0x74>
 10822e8:	2007883a 	mov	r3,r4
 10822ec:	003fd106 	br	1082234 <memchr+0x18>
 10822f0:	0005883a 	mov	r2,zero
 10822f4:	f800283a 	ret
 10822f8:	3805883a 	mov	r2,r7
 10822fc:	f800283a 	ret

01082300 <memcpy>:
 1082300:	01c003c4 	movi	r7,15
 1082304:	2007883a 	mov	r3,r4
 1082308:	3980032e 	bgeu	r7,r6,1082318 <memcpy+0x18>
 108230c:	2904b03a 	or	r2,r5,r4
 1082310:	108000cc 	andi	r2,r2,3
 1082314:	10000926 	beq	r2,zero,108233c <memcpy+0x3c>
 1082318:	30000626 	beq	r6,zero,1082334 <memcpy+0x34>
 108231c:	30cd883a 	add	r6,r6,r3
 1082320:	28800003 	ldbu	r2,0(r5)
 1082324:	29400044 	addi	r5,r5,1
 1082328:	18800005 	stb	r2,0(r3)
 108232c:	18c00044 	addi	r3,r3,1
 1082330:	30fffb1e 	bne	r6,r3,1082320 <memcpy+0x20>
 1082334:	2005883a 	mov	r2,r4
 1082338:	f800283a 	ret
 108233c:	3811883a 	mov	r8,r7
 1082340:	200f883a 	mov	r7,r4
 1082344:	28c00017 	ldw	r3,0(r5)
 1082348:	31bffc04 	addi	r6,r6,-16
 108234c:	38c00015 	stw	r3,0(r7)
 1082350:	28800117 	ldw	r2,4(r5)
 1082354:	38800115 	stw	r2,4(r7)
 1082358:	28c00217 	ldw	r3,8(r5)
 108235c:	38c00215 	stw	r3,8(r7)
 1082360:	28800317 	ldw	r2,12(r5)
 1082364:	29400404 	addi	r5,r5,16
 1082368:	38800315 	stw	r2,12(r7)
 108236c:	39c00404 	addi	r7,r7,16
 1082370:	41bff436 	bltu	r8,r6,1082344 <memcpy+0x44>
 1082374:	008000c4 	movi	r2,3
 1082378:	1180072e 	bgeu	r2,r6,1082398 <memcpy+0x98>
 108237c:	1007883a 	mov	r3,r2
 1082380:	28800017 	ldw	r2,0(r5)
 1082384:	31bfff04 	addi	r6,r6,-4
 1082388:	29400104 	addi	r5,r5,4
 108238c:	38800015 	stw	r2,0(r7)
 1082390:	39c00104 	addi	r7,r7,4
 1082394:	19bffa36 	bltu	r3,r6,1082380 <memcpy+0x80>
 1082398:	3807883a 	mov	r3,r7
 108239c:	003fde06 	br	1082318 <memcpy+0x18>

010823a0 <memmove>:
 10823a0:	2807883a 	mov	r3,r5
 10823a4:	2011883a 	mov	r8,r4
 10823a8:	29000c2e 	bgeu	r5,r4,10823dc <memmove+0x3c>
 10823ac:	298f883a 	add	r7,r5,r6
 10823b0:	21c00a2e 	bgeu	r4,r7,10823dc <memmove+0x3c>
 10823b4:	30000726 	beq	r6,zero,10823d4 <memmove+0x34>
 10823b8:	2187883a 	add	r3,r4,r6
 10823bc:	198dc83a 	sub	r6,r3,r6
 10823c0:	39ffffc4 	addi	r7,r7,-1
 10823c4:	38800003 	ldbu	r2,0(r7)
 10823c8:	18ffffc4 	addi	r3,r3,-1
 10823cc:	18800005 	stb	r2,0(r3)
 10823d0:	19bffb1e 	bne	r3,r6,10823c0 <memmove+0x20>
 10823d4:	2005883a 	mov	r2,r4
 10823d8:	f800283a 	ret
 10823dc:	01c003c4 	movi	r7,15
 10823e0:	39800a36 	bltu	r7,r6,108240c <memmove+0x6c>
 10823e4:	303ffb26 	beq	r6,zero,10823d4 <memmove+0x34>
 10823e8:	400f883a 	mov	r7,r8
 10823ec:	320d883a 	add	r6,r6,r8
 10823f0:	28800003 	ldbu	r2,0(r5)
 10823f4:	29400044 	addi	r5,r5,1
 10823f8:	38800005 	stb	r2,0(r7)
 10823fc:	39c00044 	addi	r7,r7,1
 1082400:	39bffb1e 	bne	r7,r6,10823f0 <memmove+0x50>
 1082404:	2005883a 	mov	r2,r4
 1082408:	f800283a 	ret
 108240c:	1904b03a 	or	r2,r3,r4
 1082410:	108000cc 	andi	r2,r2,3
 1082414:	103ff31e 	bne	r2,zero,10823e4 <memmove+0x44>
 1082418:	3811883a 	mov	r8,r7
 108241c:	180b883a 	mov	r5,r3
 1082420:	200f883a 	mov	r7,r4
 1082424:	28c00017 	ldw	r3,0(r5)
 1082428:	31bffc04 	addi	r6,r6,-16
 108242c:	38c00015 	stw	r3,0(r7)
 1082430:	28800117 	ldw	r2,4(r5)
 1082434:	38800115 	stw	r2,4(r7)
 1082438:	28c00217 	ldw	r3,8(r5)
 108243c:	38c00215 	stw	r3,8(r7)
 1082440:	28800317 	ldw	r2,12(r5)
 1082444:	29400404 	addi	r5,r5,16
 1082448:	38800315 	stw	r2,12(r7)
 108244c:	39c00404 	addi	r7,r7,16
 1082450:	41bff436 	bltu	r8,r6,1082424 <memmove+0x84>
 1082454:	008000c4 	movi	r2,3
 1082458:	1180072e 	bgeu	r2,r6,1082478 <memmove+0xd8>
 108245c:	1007883a 	mov	r3,r2
 1082460:	28800017 	ldw	r2,0(r5)
 1082464:	31bfff04 	addi	r6,r6,-4
 1082468:	29400104 	addi	r5,r5,4
 108246c:	38800015 	stw	r2,0(r7)
 1082470:	39c00104 	addi	r7,r7,4
 1082474:	19bffa36 	bltu	r3,r6,1082460 <memmove+0xc0>
 1082478:	3811883a 	mov	r8,r7
 108247c:	003fd906 	br	10823e4 <memmove+0x44>

01082480 <memset>:
 1082480:	008000c4 	movi	r2,3
 1082484:	29403fcc 	andi	r5,r5,255
 1082488:	2007883a 	mov	r3,r4
 108248c:	1180022e 	bgeu	r2,r6,1082498 <memset+0x18>
 1082490:	2084703a 	and	r2,r4,r2
 1082494:	10000826 	beq	r2,zero,10824b8 <memset+0x38>
 1082498:	30000526 	beq	r6,zero,10824b0 <memset+0x30>
 108249c:	2805883a 	mov	r2,r5
 10824a0:	30cd883a 	add	r6,r6,r3
 10824a4:	18800005 	stb	r2,0(r3)
 10824a8:	18c00044 	addi	r3,r3,1
 10824ac:	19bffd1e 	bne	r3,r6,10824a4 <memset+0x24>
 10824b0:	2005883a 	mov	r2,r4
 10824b4:	f800283a 	ret
 10824b8:	2804923a 	slli	r2,r5,8
 10824bc:	020003c4 	movi	r8,15
 10824c0:	200f883a 	mov	r7,r4
 10824c4:	2884b03a 	or	r2,r5,r2
 10824c8:	1006943a 	slli	r3,r2,16
 10824cc:	10c6b03a 	or	r3,r2,r3
 10824d0:	41800a2e 	bgeu	r8,r6,10824fc <memset+0x7c>
 10824d4:	4005883a 	mov	r2,r8
 10824d8:	31bffc04 	addi	r6,r6,-16
 10824dc:	38c00015 	stw	r3,0(r7)
 10824e0:	38c00115 	stw	r3,4(r7)
 10824e4:	38c00215 	stw	r3,8(r7)
 10824e8:	38c00315 	stw	r3,12(r7)
 10824ec:	39c00404 	addi	r7,r7,16
 10824f0:	11bff936 	bltu	r2,r6,10824d8 <memset+0x58>
 10824f4:	008000c4 	movi	r2,3
 10824f8:	1180052e 	bgeu	r2,r6,1082510 <memset+0x90>
 10824fc:	31bfff04 	addi	r6,r6,-4
 1082500:	008000c4 	movi	r2,3
 1082504:	38c00015 	stw	r3,0(r7)
 1082508:	39c00104 	addi	r7,r7,4
 108250c:	11bffb36 	bltu	r2,r6,10824fc <memset+0x7c>
 1082510:	3807883a 	mov	r3,r7
 1082514:	003fe006 	br	1082498 <memset+0x18>

01082518 <_realloc_r>:
 1082518:	defff404 	addi	sp,sp,-48
 108251c:	dd800815 	stw	r22,32(sp)
 1082520:	dc800415 	stw	r18,16(sp)
 1082524:	dc400315 	stw	r17,12(sp)
 1082528:	dfc00b15 	stw	ra,44(sp)
 108252c:	df000a15 	stw	fp,40(sp)
 1082530:	ddc00915 	stw	r23,36(sp)
 1082534:	dd400715 	stw	r21,28(sp)
 1082538:	dd000615 	stw	r20,24(sp)
 108253c:	dcc00515 	stw	r19,20(sp)
 1082540:	dc000215 	stw	r16,8(sp)
 1082544:	2825883a 	mov	r18,r5
 1082548:	3023883a 	mov	r17,r6
 108254c:	202d883a 	mov	r22,r4
 1082550:	2800c926 	beq	r5,zero,1082878 <_realloc_r+0x360>
 1082554:	108381c0 	call	108381c <__malloc_lock>
 1082558:	943ffe04 	addi	r16,r18,-8
 108255c:	88c002c4 	addi	r3,r17,11
 1082560:	00800584 	movi	r2,22
 1082564:	82000117 	ldw	r8,4(r16)
 1082568:	10c01b2e 	bgeu	r2,r3,10825d8 <_realloc_r+0xc0>
 108256c:	00bffe04 	movi	r2,-8
 1082570:	188e703a 	and	r7,r3,r2
 1082574:	3839883a 	mov	fp,r7
 1082578:	38001a16 	blt	r7,zero,10825e4 <_realloc_r+0xcc>
 108257c:	e4401936 	bltu	fp,r17,10825e4 <_realloc_r+0xcc>
 1082580:	013fff04 	movi	r4,-4
 1082584:	4126703a 	and	r19,r8,r4
 1082588:	99c02616 	blt	r19,r7,1082624 <_realloc_r+0x10c>
 108258c:	802b883a 	mov	r21,r16
 1082590:	9829883a 	mov	r20,r19
 1082594:	84000204 	addi	r16,r16,8
 1082598:	a80f883a 	mov	r7,r21
 108259c:	a70dc83a 	sub	r6,r20,fp
 10825a0:	008003c4 	movi	r2,15
 10825a4:	1180c136 	bltu	r2,r6,10828ac <_realloc_r+0x394>
 10825a8:	38800117 	ldw	r2,4(r7)
 10825ac:	a549883a 	add	r4,r20,r21
 10825b0:	1080004c 	andi	r2,r2,1
 10825b4:	a084b03a 	or	r2,r20,r2
 10825b8:	38800115 	stw	r2,4(r7)
 10825bc:	20c00117 	ldw	r3,4(r4)
 10825c0:	18c00054 	ori	r3,r3,1
 10825c4:	20c00115 	stw	r3,4(r4)
 10825c8:	b009883a 	mov	r4,r22
 10825cc:	10837c00 	call	10837c0 <__malloc_unlock>
 10825d0:	8023883a 	mov	r17,r16
 10825d4:	00000606 	br	10825f0 <_realloc_r+0xd8>
 10825d8:	01c00404 	movi	r7,16
 10825dc:	3839883a 	mov	fp,r7
 10825e0:	e47fe72e 	bgeu	fp,r17,1082580 <_realloc_r+0x68>
 10825e4:	00800304 	movi	r2,12
 10825e8:	0023883a 	mov	r17,zero
 10825ec:	b0800015 	stw	r2,0(r22)
 10825f0:	8805883a 	mov	r2,r17
 10825f4:	dfc00b17 	ldw	ra,44(sp)
 10825f8:	df000a17 	ldw	fp,40(sp)
 10825fc:	ddc00917 	ldw	r23,36(sp)
 1082600:	dd800817 	ldw	r22,32(sp)
 1082604:	dd400717 	ldw	r21,28(sp)
 1082608:	dd000617 	ldw	r20,24(sp)
 108260c:	dcc00517 	ldw	r19,20(sp)
 1082610:	dc800417 	ldw	r18,16(sp)
 1082614:	dc400317 	ldw	r17,12(sp)
 1082618:	dc000217 	ldw	r16,8(sp)
 108261c:	dec00c04 	addi	sp,sp,48
 1082620:	f800283a 	ret
 1082624:	00804274 	movhi	r2,265
 1082628:	10af1b04 	addi	r2,r2,-17300
 108262c:	12400217 	ldw	r9,8(r2)
 1082630:	84cd883a 	add	r6,r16,r19
 1082634:	802b883a 	mov	r21,r16
 1082638:	3240b926 	beq	r6,r9,1082920 <_realloc_r+0x408>
 108263c:	31400117 	ldw	r5,4(r6)
 1082640:	00bfff84 	movi	r2,-2
 1082644:	2884703a 	and	r2,r5,r2
 1082648:	1185883a 	add	r2,r2,r6
 108264c:	10c00117 	ldw	r3,4(r2)
 1082650:	18c0004c 	andi	r3,r3,1
 1082654:	1807003a 	cmpeq	r3,r3,zero
 1082658:	1800a326 	beq	r3,zero,10828e8 <_realloc_r+0x3d0>
 108265c:	2908703a 	and	r4,r5,r4
 1082660:	9929883a 	add	r20,r19,r4
 1082664:	a1c0a30e 	bge	r20,r7,10828f4 <_realloc_r+0x3dc>
 1082668:	4080004c 	andi	r2,r8,1
 108266c:	1000551e 	bne	r2,zero,10827c4 <_realloc_r+0x2ac>
 1082670:	80800017 	ldw	r2,0(r16)
 1082674:	80afc83a 	sub	r23,r16,r2
 1082678:	b8c00117 	ldw	r3,4(r23)
 108267c:	00bfff04 	movi	r2,-4
 1082680:	1884703a 	and	r2,r3,r2
 1082684:	30002e26 	beq	r6,zero,1082740 <_realloc_r+0x228>
 1082688:	3240b926 	beq	r6,r9,1082970 <_realloc_r+0x458>
 108268c:	98a9883a 	add	r20,r19,r2
 1082690:	2509883a 	add	r4,r4,r20
 1082694:	d9000015 	stw	r4,0(sp)
 1082698:	21c02a16 	blt	r4,r7,1082744 <_realloc_r+0x22c>
 108269c:	30800317 	ldw	r2,12(r6)
 10826a0:	30c00217 	ldw	r3,8(r6)
 10826a4:	01400904 	movi	r5,36
 10826a8:	99bfff04 	addi	r6,r19,-4
 10826ac:	18800315 	stw	r2,12(r3)
 10826b0:	10c00215 	stw	r3,8(r2)
 10826b4:	b9000317 	ldw	r4,12(r23)
 10826b8:	b8800217 	ldw	r2,8(r23)
 10826bc:	b82b883a 	mov	r21,r23
 10826c0:	bc000204 	addi	r16,r23,8
 10826c4:	20800215 	stw	r2,8(r4)
 10826c8:	11000315 	stw	r4,12(r2)
 10826cc:	2980e436 	bltu	r5,r6,1082a60 <_realloc_r+0x548>
 10826d0:	008004c4 	movi	r2,19
 10826d4:	9009883a 	mov	r4,r18
 10826d8:	8011883a 	mov	r8,r16
 10826dc:	11800f2e 	bgeu	r2,r6,108271c <_realloc_r+0x204>
 10826e0:	90800017 	ldw	r2,0(r18)
 10826e4:	ba000404 	addi	r8,r23,16
 10826e8:	91000204 	addi	r4,r18,8
 10826ec:	b8800215 	stw	r2,8(r23)
 10826f0:	90c00117 	ldw	r3,4(r18)
 10826f4:	008006c4 	movi	r2,27
 10826f8:	b8c00315 	stw	r3,12(r23)
 10826fc:	1180072e 	bgeu	r2,r6,108271c <_realloc_r+0x204>
 1082700:	90c00217 	ldw	r3,8(r18)
 1082704:	ba000604 	addi	r8,r23,24
 1082708:	91000404 	addi	r4,r18,16
 108270c:	b8c00415 	stw	r3,16(r23)
 1082710:	90800317 	ldw	r2,12(r18)
 1082714:	b8800515 	stw	r2,20(r23)
 1082718:	3140e726 	beq	r6,r5,1082ab8 <_realloc_r+0x5a0>
 108271c:	20800017 	ldw	r2,0(r4)
 1082720:	dd000017 	ldw	r20,0(sp)
 1082724:	b80f883a 	mov	r7,r23
 1082728:	40800015 	stw	r2,0(r8)
 108272c:	20c00117 	ldw	r3,4(r4)
 1082730:	40c00115 	stw	r3,4(r8)
 1082734:	20800217 	ldw	r2,8(r4)
 1082738:	40800215 	stw	r2,8(r8)
 108273c:	003f9706 	br	108259c <_realloc_r+0x84>
 1082740:	98a9883a 	add	r20,r19,r2
 1082744:	a1c01f16 	blt	r20,r7,10827c4 <_realloc_r+0x2ac>
 1082748:	b8c00317 	ldw	r3,12(r23)
 108274c:	b8800217 	ldw	r2,8(r23)
 1082750:	99bfff04 	addi	r6,r19,-4
 1082754:	01400904 	movi	r5,36
 1082758:	b82b883a 	mov	r21,r23
 108275c:	18800215 	stw	r2,8(r3)
 1082760:	10c00315 	stw	r3,12(r2)
 1082764:	bc000204 	addi	r16,r23,8
 1082768:	2980c336 	bltu	r5,r6,1082a78 <_realloc_r+0x560>
 108276c:	008004c4 	movi	r2,19
 1082770:	9009883a 	mov	r4,r18
 1082774:	8011883a 	mov	r8,r16
 1082778:	11800f2e 	bgeu	r2,r6,10827b8 <_realloc_r+0x2a0>
 108277c:	90800017 	ldw	r2,0(r18)
 1082780:	ba000404 	addi	r8,r23,16
 1082784:	91000204 	addi	r4,r18,8
 1082788:	b8800215 	stw	r2,8(r23)
 108278c:	90c00117 	ldw	r3,4(r18)
 1082790:	008006c4 	movi	r2,27
 1082794:	b8c00315 	stw	r3,12(r23)
 1082798:	1180072e 	bgeu	r2,r6,10827b8 <_realloc_r+0x2a0>
 108279c:	90c00217 	ldw	r3,8(r18)
 10827a0:	ba000604 	addi	r8,r23,24
 10827a4:	91000404 	addi	r4,r18,16
 10827a8:	b8c00415 	stw	r3,16(r23)
 10827ac:	90800317 	ldw	r2,12(r18)
 10827b0:	b8800515 	stw	r2,20(r23)
 10827b4:	3140c726 	beq	r6,r5,1082ad4 <_realloc_r+0x5bc>
 10827b8:	20800017 	ldw	r2,0(r4)
 10827bc:	b80f883a 	mov	r7,r23
 10827c0:	003fd906 	br	1082728 <_realloc_r+0x210>
 10827c4:	880b883a 	mov	r5,r17
 10827c8:	b009883a 	mov	r4,r22
 10827cc:	1081adc0 	call	1081adc <_malloc_r>
 10827d0:	1023883a 	mov	r17,r2
 10827d4:	10002526 	beq	r2,zero,108286c <_realloc_r+0x354>
 10827d8:	80800117 	ldw	r2,4(r16)
 10827dc:	00ffff84 	movi	r3,-2
 10827e0:	893ffe04 	addi	r4,r17,-8
 10827e4:	10c4703a 	and	r2,r2,r3
 10827e8:	8085883a 	add	r2,r16,r2
 10827ec:	20809526 	beq	r4,r2,1082a44 <_realloc_r+0x52c>
 10827f0:	99bfff04 	addi	r6,r19,-4
 10827f4:	01c00904 	movi	r7,36
 10827f8:	39804536 	bltu	r7,r6,1082910 <_realloc_r+0x3f8>
 10827fc:	008004c4 	movi	r2,19
 1082800:	9009883a 	mov	r4,r18
 1082804:	880b883a 	mov	r5,r17
 1082808:	11800f2e 	bgeu	r2,r6,1082848 <_realloc_r+0x330>
 108280c:	90800017 	ldw	r2,0(r18)
 1082810:	89400204 	addi	r5,r17,8
 1082814:	91000204 	addi	r4,r18,8
 1082818:	88800015 	stw	r2,0(r17)
 108281c:	90c00117 	ldw	r3,4(r18)
 1082820:	008006c4 	movi	r2,27
 1082824:	88c00115 	stw	r3,4(r17)
 1082828:	1180072e 	bgeu	r2,r6,1082848 <_realloc_r+0x330>
 108282c:	90c00217 	ldw	r3,8(r18)
 1082830:	89400404 	addi	r5,r17,16
 1082834:	91000404 	addi	r4,r18,16
 1082838:	88c00215 	stw	r3,8(r17)
 108283c:	90800317 	ldw	r2,12(r18)
 1082840:	88800315 	stw	r2,12(r17)
 1082844:	31c09126 	beq	r6,r7,1082a8c <_realloc_r+0x574>
 1082848:	20800017 	ldw	r2,0(r4)
 108284c:	28800015 	stw	r2,0(r5)
 1082850:	20c00117 	ldw	r3,4(r4)
 1082854:	28c00115 	stw	r3,4(r5)
 1082858:	20800217 	ldw	r2,8(r4)
 108285c:	28800215 	stw	r2,8(r5)
 1082860:	900b883a 	mov	r5,r18
 1082864:	b009883a 	mov	r4,r22
 1082868:	10810180 	call	1081018 <_free_r>
 108286c:	b009883a 	mov	r4,r22
 1082870:	10837c00 	call	10837c0 <__malloc_unlock>
 1082874:	003f5e06 	br	10825f0 <_realloc_r+0xd8>
 1082878:	300b883a 	mov	r5,r6
 108287c:	dfc00b17 	ldw	ra,44(sp)
 1082880:	df000a17 	ldw	fp,40(sp)
 1082884:	ddc00917 	ldw	r23,36(sp)
 1082888:	dd800817 	ldw	r22,32(sp)
 108288c:	dd400717 	ldw	r21,28(sp)
 1082890:	dd000617 	ldw	r20,24(sp)
 1082894:	dcc00517 	ldw	r19,20(sp)
 1082898:	dc800417 	ldw	r18,16(sp)
 108289c:	dc400317 	ldw	r17,12(sp)
 10828a0:	dc000217 	ldw	r16,8(sp)
 10828a4:	dec00c04 	addi	sp,sp,48
 10828a8:	1081adc1 	jmpi	1081adc <_malloc_r>
 10828ac:	38800117 	ldw	r2,4(r7)
 10828b0:	e54b883a 	add	r5,fp,r21
 10828b4:	31000054 	ori	r4,r6,1
 10828b8:	1080004c 	andi	r2,r2,1
 10828bc:	1704b03a 	or	r2,r2,fp
 10828c0:	38800115 	stw	r2,4(r7)
 10828c4:	29000115 	stw	r4,4(r5)
 10828c8:	2987883a 	add	r3,r5,r6
 10828cc:	18800117 	ldw	r2,4(r3)
 10828d0:	29400204 	addi	r5,r5,8
 10828d4:	b009883a 	mov	r4,r22
 10828d8:	10800054 	ori	r2,r2,1
 10828dc:	18800115 	stw	r2,4(r3)
 10828e0:	10810180 	call	1081018 <_free_r>
 10828e4:	003f3806 	br	10825c8 <_realloc_r+0xb0>
 10828e8:	000d883a 	mov	r6,zero
 10828ec:	0009883a 	mov	r4,zero
 10828f0:	003f5d06 	br	1082668 <_realloc_r+0x150>
 10828f4:	30c00217 	ldw	r3,8(r6)
 10828f8:	30800317 	ldw	r2,12(r6)
 10828fc:	800f883a 	mov	r7,r16
 1082900:	84000204 	addi	r16,r16,8
 1082904:	10c00215 	stw	r3,8(r2)
 1082908:	18800315 	stw	r2,12(r3)
 108290c:	003f2306 	br	108259c <_realloc_r+0x84>
 1082910:	8809883a 	mov	r4,r17
 1082914:	900b883a 	mov	r5,r18
 1082918:	10823a00 	call	10823a0 <memmove>
 108291c:	003fd006 	br	1082860 <_realloc_r+0x348>
 1082920:	30800117 	ldw	r2,4(r6)
 1082924:	e0c00404 	addi	r3,fp,16
 1082928:	1108703a 	and	r4,r2,r4
 108292c:	9905883a 	add	r2,r19,r4
 1082930:	10ff4d16 	blt	r2,r3,1082668 <_realloc_r+0x150>
 1082934:	1705c83a 	sub	r2,r2,fp
 1082938:	870b883a 	add	r5,r16,fp
 108293c:	10800054 	ori	r2,r2,1
 1082940:	28800115 	stw	r2,4(r5)
 1082944:	80c00117 	ldw	r3,4(r16)
 1082948:	00804274 	movhi	r2,265
 108294c:	10af1b04 	addi	r2,r2,-17300
 1082950:	b009883a 	mov	r4,r22
 1082954:	18c0004c 	andi	r3,r3,1
 1082958:	e0c6b03a 	or	r3,fp,r3
 108295c:	11400215 	stw	r5,8(r2)
 1082960:	80c00115 	stw	r3,4(r16)
 1082964:	10837c00 	call	10837c0 <__malloc_unlock>
 1082968:	84400204 	addi	r17,r16,8
 108296c:	003f2006 	br	10825f0 <_realloc_r+0xd8>
 1082970:	98a9883a 	add	r20,r19,r2
 1082974:	2509883a 	add	r4,r4,r20
 1082978:	e0800404 	addi	r2,fp,16
 108297c:	d9000115 	stw	r4,4(sp)
 1082980:	20bf7016 	blt	r4,r2,1082744 <_realloc_r+0x22c>
 1082984:	b8c00317 	ldw	r3,12(r23)
 1082988:	b8800217 	ldw	r2,8(r23)
 108298c:	99bfff04 	addi	r6,r19,-4
 1082990:	01400904 	movi	r5,36
 1082994:	18800215 	stw	r2,8(r3)
 1082998:	10c00315 	stw	r3,12(r2)
 108299c:	bc400204 	addi	r17,r23,8
 10829a0:	29804136 	bltu	r5,r6,1082aa8 <_realloc_r+0x590>
 10829a4:	008004c4 	movi	r2,19
 10829a8:	9009883a 	mov	r4,r18
 10829ac:	880f883a 	mov	r7,r17
 10829b0:	11800f2e 	bgeu	r2,r6,10829f0 <_realloc_r+0x4d8>
 10829b4:	90800017 	ldw	r2,0(r18)
 10829b8:	b9c00404 	addi	r7,r23,16
 10829bc:	91000204 	addi	r4,r18,8
 10829c0:	b8800215 	stw	r2,8(r23)
 10829c4:	90c00117 	ldw	r3,4(r18)
 10829c8:	008006c4 	movi	r2,27
 10829cc:	b8c00315 	stw	r3,12(r23)
 10829d0:	1180072e 	bgeu	r2,r6,10829f0 <_realloc_r+0x4d8>
 10829d4:	90c00217 	ldw	r3,8(r18)
 10829d8:	b9c00604 	addi	r7,r23,24
 10829dc:	91000404 	addi	r4,r18,16
 10829e0:	b8c00415 	stw	r3,16(r23)
 10829e4:	90800317 	ldw	r2,12(r18)
 10829e8:	b8800515 	stw	r2,20(r23)
 10829ec:	31404026 	beq	r6,r5,1082af0 <_realloc_r+0x5d8>
 10829f0:	20800017 	ldw	r2,0(r4)
 10829f4:	38800015 	stw	r2,0(r7)
 10829f8:	20c00117 	ldw	r3,4(r4)
 10829fc:	38c00115 	stw	r3,4(r7)
 1082a00:	20800217 	ldw	r2,8(r4)
 1082a04:	38800215 	stw	r2,8(r7)
 1082a08:	d8c00117 	ldw	r3,4(sp)
 1082a0c:	bf0b883a 	add	r5,r23,fp
 1082a10:	b009883a 	mov	r4,r22
 1082a14:	1f05c83a 	sub	r2,r3,fp
 1082a18:	10800054 	ori	r2,r2,1
 1082a1c:	28800115 	stw	r2,4(r5)
 1082a20:	b8c00117 	ldw	r3,4(r23)
 1082a24:	00804274 	movhi	r2,265
 1082a28:	10af1b04 	addi	r2,r2,-17300
 1082a2c:	11400215 	stw	r5,8(r2)
 1082a30:	18c0004c 	andi	r3,r3,1
 1082a34:	e0c6b03a 	or	r3,fp,r3
 1082a38:	b8c00115 	stw	r3,4(r23)
 1082a3c:	10837c00 	call	10837c0 <__malloc_unlock>
 1082a40:	003eeb06 	br	10825f0 <_realloc_r+0xd8>
 1082a44:	20800117 	ldw	r2,4(r4)
 1082a48:	00ffff04 	movi	r3,-4
 1082a4c:	800f883a 	mov	r7,r16
 1082a50:	10c4703a 	and	r2,r2,r3
 1082a54:	98a9883a 	add	r20,r19,r2
 1082a58:	84000204 	addi	r16,r16,8
 1082a5c:	003ecf06 	br	108259c <_realloc_r+0x84>
 1082a60:	900b883a 	mov	r5,r18
 1082a64:	8009883a 	mov	r4,r16
 1082a68:	10823a00 	call	10823a0 <memmove>
 1082a6c:	dd000017 	ldw	r20,0(sp)
 1082a70:	b80f883a 	mov	r7,r23
 1082a74:	003ec906 	br	108259c <_realloc_r+0x84>
 1082a78:	900b883a 	mov	r5,r18
 1082a7c:	8009883a 	mov	r4,r16
 1082a80:	10823a00 	call	10823a0 <memmove>
 1082a84:	b80f883a 	mov	r7,r23
 1082a88:	003ec406 	br	108259c <_realloc_r+0x84>
 1082a8c:	90c00417 	ldw	r3,16(r18)
 1082a90:	89400604 	addi	r5,r17,24
 1082a94:	91000604 	addi	r4,r18,24
 1082a98:	88c00415 	stw	r3,16(r17)
 1082a9c:	90800517 	ldw	r2,20(r18)
 1082aa0:	88800515 	stw	r2,20(r17)
 1082aa4:	003f6806 	br	1082848 <_realloc_r+0x330>
 1082aa8:	900b883a 	mov	r5,r18
 1082aac:	8809883a 	mov	r4,r17
 1082ab0:	10823a00 	call	10823a0 <memmove>
 1082ab4:	003fd406 	br	1082a08 <_realloc_r+0x4f0>
 1082ab8:	90c00417 	ldw	r3,16(r18)
 1082abc:	91000604 	addi	r4,r18,24
 1082ac0:	ba000804 	addi	r8,r23,32
 1082ac4:	b8c00615 	stw	r3,24(r23)
 1082ac8:	90800517 	ldw	r2,20(r18)
 1082acc:	b8800715 	stw	r2,28(r23)
 1082ad0:	003f1206 	br	108271c <_realloc_r+0x204>
 1082ad4:	90c00417 	ldw	r3,16(r18)
 1082ad8:	91000604 	addi	r4,r18,24
 1082adc:	ba000804 	addi	r8,r23,32
 1082ae0:	b8c00615 	stw	r3,24(r23)
 1082ae4:	90800517 	ldw	r2,20(r18)
 1082ae8:	b8800715 	stw	r2,28(r23)
 1082aec:	003f3206 	br	10827b8 <_realloc_r+0x2a0>
 1082af0:	90c00417 	ldw	r3,16(r18)
 1082af4:	91000604 	addi	r4,r18,24
 1082af8:	b9c00804 	addi	r7,r23,32
 1082afc:	b8c00615 	stw	r3,24(r23)
 1082b00:	90800517 	ldw	r2,20(r18)
 1082b04:	b8800715 	stw	r2,28(r23)
 1082b08:	003fb906 	br	10829f0 <_realloc_r+0x4d8>

01082b0c <_sbrk_r>:
 1082b0c:	defffd04 	addi	sp,sp,-12
 1082b10:	dc000015 	stw	r16,0(sp)
 1082b14:	04004274 	movhi	r16,265
 1082b18:	843b8904 	addi	r16,r16,-4572
 1082b1c:	dc400115 	stw	r17,4(sp)
 1082b20:	80000015 	stw	zero,0(r16)
 1082b24:	2023883a 	mov	r17,r4
 1082b28:	2809883a 	mov	r4,r5
 1082b2c:	dfc00215 	stw	ra,8(sp)
 1082b30:	10835f40 	call	10835f4 <sbrk>
 1082b34:	1007883a 	mov	r3,r2
 1082b38:	00bfffc4 	movi	r2,-1
 1082b3c:	18800626 	beq	r3,r2,1082b58 <_sbrk_r+0x4c>
 1082b40:	1805883a 	mov	r2,r3
 1082b44:	dfc00217 	ldw	ra,8(sp)
 1082b48:	dc400117 	ldw	r17,4(sp)
 1082b4c:	dc000017 	ldw	r16,0(sp)
 1082b50:	dec00304 	addi	sp,sp,12
 1082b54:	f800283a 	ret
 1082b58:	80800017 	ldw	r2,0(r16)
 1082b5c:	103ff826 	beq	r2,zero,1082b40 <_sbrk_r+0x34>
 1082b60:	88800015 	stw	r2,0(r17)
 1082b64:	1805883a 	mov	r2,r3
 1082b68:	dfc00217 	ldw	ra,8(sp)
 1082b6c:	dc400117 	ldw	r17,4(sp)
 1082b70:	dc000017 	ldw	r16,0(sp)
 1082b74:	dec00304 	addi	sp,sp,12
 1082b78:	f800283a 	ret

01082b7c <__sclose>:
 1082b7c:	2940038f 	ldh	r5,14(r5)
 1082b80:	1082d401 	jmpi	1082d40 <_close_r>

01082b84 <__sseek>:
 1082b84:	defffe04 	addi	sp,sp,-8
 1082b88:	dc000015 	stw	r16,0(sp)
 1082b8c:	2821883a 	mov	r16,r5
 1082b90:	2940038f 	ldh	r5,14(r5)
 1082b94:	dfc00115 	stw	ra,4(sp)
 1082b98:	1082fb80 	call	1082fb8 <_lseek_r>
 1082b9c:	1007883a 	mov	r3,r2
 1082ba0:	00bfffc4 	movi	r2,-1
 1082ba4:	18800926 	beq	r3,r2,1082bcc <__sseek+0x48>
 1082ba8:	8080030b 	ldhu	r2,12(r16)
 1082bac:	80c01415 	stw	r3,80(r16)
 1082bb0:	10840014 	ori	r2,r2,4096
 1082bb4:	8080030d 	sth	r2,12(r16)
 1082bb8:	1805883a 	mov	r2,r3
 1082bbc:	dfc00117 	ldw	ra,4(sp)
 1082bc0:	dc000017 	ldw	r16,0(sp)
 1082bc4:	dec00204 	addi	sp,sp,8
 1082bc8:	f800283a 	ret
 1082bcc:	8080030b 	ldhu	r2,12(r16)
 1082bd0:	10bbffcc 	andi	r2,r2,61439
 1082bd4:	8080030d 	sth	r2,12(r16)
 1082bd8:	1805883a 	mov	r2,r3
 1082bdc:	dfc00117 	ldw	ra,4(sp)
 1082be0:	dc000017 	ldw	r16,0(sp)
 1082be4:	dec00204 	addi	sp,sp,8
 1082be8:	f800283a 	ret

01082bec <__swrite>:
 1082bec:	2880030b 	ldhu	r2,12(r5)
 1082bf0:	defffb04 	addi	sp,sp,-20
 1082bf4:	dcc00315 	stw	r19,12(sp)
 1082bf8:	1080400c 	andi	r2,r2,256
 1082bfc:	dc800215 	stw	r18,8(sp)
 1082c00:	dc400115 	stw	r17,4(sp)
 1082c04:	dc000015 	stw	r16,0(sp)
 1082c08:	3027883a 	mov	r19,r6
 1082c0c:	3825883a 	mov	r18,r7
 1082c10:	dfc00415 	stw	ra,16(sp)
 1082c14:	2821883a 	mov	r16,r5
 1082c18:	000d883a 	mov	r6,zero
 1082c1c:	01c00084 	movi	r7,2
 1082c20:	2023883a 	mov	r17,r4
 1082c24:	10000226 	beq	r2,zero,1082c30 <__swrite+0x44>
 1082c28:	2940038f 	ldh	r5,14(r5)
 1082c2c:	1082fb80 	call	1082fb8 <_lseek_r>
 1082c30:	8080030b 	ldhu	r2,12(r16)
 1082c34:	8140038f 	ldh	r5,14(r16)
 1082c38:	8809883a 	mov	r4,r17
 1082c3c:	10bbffcc 	andi	r2,r2,61439
 1082c40:	980d883a 	mov	r6,r19
 1082c44:	900f883a 	mov	r7,r18
 1082c48:	8080030d 	sth	r2,12(r16)
 1082c4c:	dfc00417 	ldw	ra,16(sp)
 1082c50:	dcc00317 	ldw	r19,12(sp)
 1082c54:	dc800217 	ldw	r18,8(sp)
 1082c58:	dc400117 	ldw	r17,4(sp)
 1082c5c:	dc000017 	ldw	r16,0(sp)
 1082c60:	dec00504 	addi	sp,sp,20
 1082c64:	1082cc81 	jmpi	1082cc8 <_write_r>

01082c68 <__sread>:
 1082c68:	defffe04 	addi	sp,sp,-8
 1082c6c:	dc000015 	stw	r16,0(sp)
 1082c70:	2821883a 	mov	r16,r5
 1082c74:	2940038f 	ldh	r5,14(r5)
 1082c78:	dfc00115 	stw	ra,4(sp)
 1082c7c:	10830300 	call	1083030 <_read_r>
 1082c80:	1007883a 	mov	r3,r2
 1082c84:	10000816 	blt	r2,zero,1082ca8 <__sread+0x40>
 1082c88:	80801417 	ldw	r2,80(r16)
 1082c8c:	10c5883a 	add	r2,r2,r3
 1082c90:	80801415 	stw	r2,80(r16)
 1082c94:	1805883a 	mov	r2,r3
 1082c98:	dfc00117 	ldw	ra,4(sp)
 1082c9c:	dc000017 	ldw	r16,0(sp)
 1082ca0:	dec00204 	addi	sp,sp,8
 1082ca4:	f800283a 	ret
 1082ca8:	8080030b 	ldhu	r2,12(r16)
 1082cac:	10bbffcc 	andi	r2,r2,61439
 1082cb0:	8080030d 	sth	r2,12(r16)
 1082cb4:	1805883a 	mov	r2,r3
 1082cb8:	dfc00117 	ldw	ra,4(sp)
 1082cbc:	dc000017 	ldw	r16,0(sp)
 1082cc0:	dec00204 	addi	sp,sp,8
 1082cc4:	f800283a 	ret

01082cc8 <_write_r>:
 1082cc8:	defffd04 	addi	sp,sp,-12
 1082ccc:	dc000015 	stw	r16,0(sp)
 1082cd0:	04004274 	movhi	r16,265
 1082cd4:	843b8904 	addi	r16,r16,-4572
 1082cd8:	dc400115 	stw	r17,4(sp)
 1082cdc:	80000015 	stw	zero,0(r16)
 1082ce0:	2023883a 	mov	r17,r4
 1082ce4:	2809883a 	mov	r4,r5
 1082ce8:	300b883a 	mov	r5,r6
 1082cec:	380d883a 	mov	r6,r7
 1082cf0:	dfc00215 	stw	ra,8(sp)
 1082cf4:	10836640 	call	1083664 <write>
 1082cf8:	1007883a 	mov	r3,r2
 1082cfc:	00bfffc4 	movi	r2,-1
 1082d00:	18800626 	beq	r3,r2,1082d1c <_write_r+0x54>
 1082d04:	1805883a 	mov	r2,r3
 1082d08:	dfc00217 	ldw	ra,8(sp)
 1082d0c:	dc400117 	ldw	r17,4(sp)
 1082d10:	dc000017 	ldw	r16,0(sp)
 1082d14:	dec00304 	addi	sp,sp,12
 1082d18:	f800283a 	ret
 1082d1c:	80800017 	ldw	r2,0(r16)
 1082d20:	103ff826 	beq	r2,zero,1082d04 <_write_r+0x3c>
 1082d24:	88800015 	stw	r2,0(r17)
 1082d28:	1805883a 	mov	r2,r3
 1082d2c:	dfc00217 	ldw	ra,8(sp)
 1082d30:	dc400117 	ldw	r17,4(sp)
 1082d34:	dc000017 	ldw	r16,0(sp)
 1082d38:	dec00304 	addi	sp,sp,12
 1082d3c:	f800283a 	ret

01082d40 <_close_r>:
 1082d40:	defffd04 	addi	sp,sp,-12
 1082d44:	dc000015 	stw	r16,0(sp)
 1082d48:	04004274 	movhi	r16,265
 1082d4c:	843b8904 	addi	r16,r16,-4572
 1082d50:	dc400115 	stw	r17,4(sp)
 1082d54:	80000015 	stw	zero,0(r16)
 1082d58:	2023883a 	mov	r17,r4
 1082d5c:	2809883a 	mov	r4,r5
 1082d60:	dfc00215 	stw	ra,8(sp)
 1082d64:	10831000 	call	1083100 <close>
 1082d68:	1007883a 	mov	r3,r2
 1082d6c:	00bfffc4 	movi	r2,-1
 1082d70:	18800626 	beq	r3,r2,1082d8c <_close_r+0x4c>
 1082d74:	1805883a 	mov	r2,r3
 1082d78:	dfc00217 	ldw	ra,8(sp)
 1082d7c:	dc400117 	ldw	r17,4(sp)
 1082d80:	dc000017 	ldw	r16,0(sp)
 1082d84:	dec00304 	addi	sp,sp,12
 1082d88:	f800283a 	ret
 1082d8c:	80800017 	ldw	r2,0(r16)
 1082d90:	103ff826 	beq	r2,zero,1082d74 <_close_r+0x34>
 1082d94:	88800015 	stw	r2,0(r17)
 1082d98:	1805883a 	mov	r2,r3
 1082d9c:	dfc00217 	ldw	ra,8(sp)
 1082da0:	dc400117 	ldw	r17,4(sp)
 1082da4:	dc000017 	ldw	r16,0(sp)
 1082da8:	dec00304 	addi	sp,sp,12
 1082dac:	f800283a 	ret

01082db0 <_fclose_r>:
 1082db0:	defffc04 	addi	sp,sp,-16
 1082db4:	dc400115 	stw	r17,4(sp)
 1082db8:	dc000015 	stw	r16,0(sp)
 1082dbc:	dfc00315 	stw	ra,12(sp)
 1082dc0:	dc800215 	stw	r18,8(sp)
 1082dc4:	2821883a 	mov	r16,r5
 1082dc8:	2023883a 	mov	r17,r4
 1082dcc:	28002926 	beq	r5,zero,1082e74 <_fclose_r+0xc4>
 1082dd0:	1080c500 	call	1080c50 <__sfp_lock_acquire>
 1082dd4:	88000226 	beq	r17,zero,1082de0 <_fclose_r+0x30>
 1082dd8:	88800e17 	ldw	r2,56(r17)
 1082ddc:	10002d26 	beq	r2,zero,1082e94 <_fclose_r+0xe4>
 1082de0:	8080030f 	ldh	r2,12(r16)
 1082de4:	10002226 	beq	r2,zero,1082e70 <_fclose_r+0xc0>
 1082de8:	8809883a 	mov	r4,r17
 1082dec:	800b883a 	mov	r5,r16
 1082df0:	10809c80 	call	10809c8 <_fflush_r>
 1082df4:	1025883a 	mov	r18,r2
 1082df8:	80800b17 	ldw	r2,44(r16)
 1082dfc:	10000426 	beq	r2,zero,1082e10 <_fclose_r+0x60>
 1082e00:	81400717 	ldw	r5,28(r16)
 1082e04:	8809883a 	mov	r4,r17
 1082e08:	103ee83a 	callr	r2
 1082e0c:	10002a16 	blt	r2,zero,1082eb8 <_fclose_r+0x108>
 1082e10:	8080030b 	ldhu	r2,12(r16)
 1082e14:	1080200c 	andi	r2,r2,128
 1082e18:	1000231e 	bne	r2,zero,1082ea8 <_fclose_r+0xf8>
 1082e1c:	81400c17 	ldw	r5,48(r16)
 1082e20:	28000526 	beq	r5,zero,1082e38 <_fclose_r+0x88>
 1082e24:	80801004 	addi	r2,r16,64
 1082e28:	28800226 	beq	r5,r2,1082e34 <_fclose_r+0x84>
 1082e2c:	8809883a 	mov	r4,r17
 1082e30:	10810180 	call	1081018 <_free_r>
 1082e34:	80000c15 	stw	zero,48(r16)
 1082e38:	81401117 	ldw	r5,68(r16)
 1082e3c:	28000326 	beq	r5,zero,1082e4c <_fclose_r+0x9c>
 1082e40:	8809883a 	mov	r4,r17
 1082e44:	10810180 	call	1081018 <_free_r>
 1082e48:	80001115 	stw	zero,68(r16)
 1082e4c:	8000030d 	sth	zero,12(r16)
 1082e50:	1080c540 	call	1080c54 <__sfp_lock_release>
 1082e54:	9005883a 	mov	r2,r18
 1082e58:	dfc00317 	ldw	ra,12(sp)
 1082e5c:	dc800217 	ldw	r18,8(sp)
 1082e60:	dc400117 	ldw	r17,4(sp)
 1082e64:	dc000017 	ldw	r16,0(sp)
 1082e68:	dec00404 	addi	sp,sp,16
 1082e6c:	f800283a 	ret
 1082e70:	1080c540 	call	1080c54 <__sfp_lock_release>
 1082e74:	0025883a 	mov	r18,zero
 1082e78:	9005883a 	mov	r2,r18
 1082e7c:	dfc00317 	ldw	ra,12(sp)
 1082e80:	dc800217 	ldw	r18,8(sp)
 1082e84:	dc400117 	ldw	r17,4(sp)
 1082e88:	dc000017 	ldw	r16,0(sp)
 1082e8c:	dec00404 	addi	sp,sp,16
 1082e90:	f800283a 	ret
 1082e94:	8809883a 	mov	r4,r17
 1082e98:	1080c600 	call	1080c60 <__sinit>
 1082e9c:	8080030f 	ldh	r2,12(r16)
 1082ea0:	103fd11e 	bne	r2,zero,1082de8 <_fclose_r+0x38>
 1082ea4:	003ff206 	br	1082e70 <_fclose_r+0xc0>
 1082ea8:	81400417 	ldw	r5,16(r16)
 1082eac:	8809883a 	mov	r4,r17
 1082eb0:	10810180 	call	1081018 <_free_r>
 1082eb4:	003fd906 	br	1082e1c <_fclose_r+0x6c>
 1082eb8:	04bfffc4 	movi	r18,-1
 1082ebc:	003fd406 	br	1082e10 <_fclose_r+0x60>

01082ec0 <fclose>:
 1082ec0:	00804274 	movhi	r2,265
 1082ec4:	10b4a204 	addi	r2,r2,-11640
 1082ec8:	200b883a 	mov	r5,r4
 1082ecc:	11000017 	ldw	r4,0(r2)
 1082ed0:	1082db01 	jmpi	1082db0 <_fclose_r>

01082ed4 <_fstat_r>:
 1082ed4:	defffd04 	addi	sp,sp,-12
 1082ed8:	dc000015 	stw	r16,0(sp)
 1082edc:	04004274 	movhi	r16,265
 1082ee0:	843b8904 	addi	r16,r16,-4572
 1082ee4:	dc400115 	stw	r17,4(sp)
 1082ee8:	80000015 	stw	zero,0(r16)
 1082eec:	2023883a 	mov	r17,r4
 1082ef0:	2809883a 	mov	r4,r5
 1082ef4:	300b883a 	mov	r5,r6
 1082ef8:	dfc00215 	stw	ra,8(sp)
 1082efc:	10831a40 	call	10831a4 <fstat>
 1082f00:	1007883a 	mov	r3,r2
 1082f04:	00bfffc4 	movi	r2,-1
 1082f08:	18800626 	beq	r3,r2,1082f24 <_fstat_r+0x50>
 1082f0c:	1805883a 	mov	r2,r3
 1082f10:	dfc00217 	ldw	ra,8(sp)
 1082f14:	dc400117 	ldw	r17,4(sp)
 1082f18:	dc000017 	ldw	r16,0(sp)
 1082f1c:	dec00304 	addi	sp,sp,12
 1082f20:	f800283a 	ret
 1082f24:	80800017 	ldw	r2,0(r16)
 1082f28:	103ff826 	beq	r2,zero,1082f0c <_fstat_r+0x38>
 1082f2c:	88800015 	stw	r2,0(r17)
 1082f30:	1805883a 	mov	r2,r3
 1082f34:	dfc00217 	ldw	ra,8(sp)
 1082f38:	dc400117 	ldw	r17,4(sp)
 1082f3c:	dc000017 	ldw	r16,0(sp)
 1082f40:	dec00304 	addi	sp,sp,12
 1082f44:	f800283a 	ret

01082f48 <_isatty_r>:
 1082f48:	defffd04 	addi	sp,sp,-12
 1082f4c:	dc000015 	stw	r16,0(sp)
 1082f50:	04004274 	movhi	r16,265
 1082f54:	843b8904 	addi	r16,r16,-4572
 1082f58:	dc400115 	stw	r17,4(sp)
 1082f5c:	80000015 	stw	zero,0(r16)
 1082f60:	2023883a 	mov	r17,r4
 1082f64:	2809883a 	mov	r4,r5
 1082f68:	dfc00215 	stw	ra,8(sp)
 1082f6c:	10832400 	call	1083240 <isatty>
 1082f70:	1007883a 	mov	r3,r2
 1082f74:	00bfffc4 	movi	r2,-1
 1082f78:	18800626 	beq	r3,r2,1082f94 <_isatty_r+0x4c>
 1082f7c:	1805883a 	mov	r2,r3
 1082f80:	dfc00217 	ldw	ra,8(sp)
 1082f84:	dc400117 	ldw	r17,4(sp)
 1082f88:	dc000017 	ldw	r16,0(sp)
 1082f8c:	dec00304 	addi	sp,sp,12
 1082f90:	f800283a 	ret
 1082f94:	80800017 	ldw	r2,0(r16)
 1082f98:	103ff826 	beq	r2,zero,1082f7c <_isatty_r+0x34>
 1082f9c:	88800015 	stw	r2,0(r17)
 1082fa0:	1805883a 	mov	r2,r3
 1082fa4:	dfc00217 	ldw	ra,8(sp)
 1082fa8:	dc400117 	ldw	r17,4(sp)
 1082fac:	dc000017 	ldw	r16,0(sp)
 1082fb0:	dec00304 	addi	sp,sp,12
 1082fb4:	f800283a 	ret

01082fb8 <_lseek_r>:
 1082fb8:	defffd04 	addi	sp,sp,-12
 1082fbc:	dc000015 	stw	r16,0(sp)
 1082fc0:	04004274 	movhi	r16,265
 1082fc4:	843b8904 	addi	r16,r16,-4572
 1082fc8:	dc400115 	stw	r17,4(sp)
 1082fcc:	80000015 	stw	zero,0(r16)
 1082fd0:	2023883a 	mov	r17,r4
 1082fd4:	2809883a 	mov	r4,r5
 1082fd8:	300b883a 	mov	r5,r6
 1082fdc:	380d883a 	mov	r6,r7
 1082fe0:	dfc00215 	stw	ra,8(sp)
 1082fe4:	10833600 	call	1083360 <lseek>
 1082fe8:	1007883a 	mov	r3,r2
 1082fec:	00bfffc4 	movi	r2,-1
 1082ff0:	18800626 	beq	r3,r2,108300c <_lseek_r+0x54>
 1082ff4:	1805883a 	mov	r2,r3
 1082ff8:	dfc00217 	ldw	ra,8(sp)
 1082ffc:	dc400117 	ldw	r17,4(sp)
 1083000:	dc000017 	ldw	r16,0(sp)
 1083004:	dec00304 	addi	sp,sp,12
 1083008:	f800283a 	ret
 108300c:	80800017 	ldw	r2,0(r16)
 1083010:	103ff826 	beq	r2,zero,1082ff4 <_lseek_r+0x3c>
 1083014:	88800015 	stw	r2,0(r17)
 1083018:	1805883a 	mov	r2,r3
 108301c:	dfc00217 	ldw	ra,8(sp)
 1083020:	dc400117 	ldw	r17,4(sp)
 1083024:	dc000017 	ldw	r16,0(sp)
 1083028:	dec00304 	addi	sp,sp,12
 108302c:	f800283a 	ret

01083030 <_read_r>:
 1083030:	defffd04 	addi	sp,sp,-12
 1083034:	dc000015 	stw	r16,0(sp)
 1083038:	04004274 	movhi	r16,265
 108303c:	843b8904 	addi	r16,r16,-4572
 1083040:	dc400115 	stw	r17,4(sp)
 1083044:	80000015 	stw	zero,0(r16)
 1083048:	2023883a 	mov	r17,r4
 108304c:	2809883a 	mov	r4,r5
 1083050:	300b883a 	mov	r5,r6
 1083054:	380d883a 	mov	r6,r7
 1083058:	dfc00215 	stw	ra,8(sp)
 108305c:	10834e00 	call	10834e0 <read>
 1083060:	1007883a 	mov	r3,r2
 1083064:	00bfffc4 	movi	r2,-1
 1083068:	18800626 	beq	r3,r2,1083084 <_read_r+0x54>
 108306c:	1805883a 	mov	r2,r3
 1083070:	dfc00217 	ldw	ra,8(sp)
 1083074:	dc400117 	ldw	r17,4(sp)
 1083078:	dc000017 	ldw	r16,0(sp)
 108307c:	dec00304 	addi	sp,sp,12
 1083080:	f800283a 	ret
 1083084:	80800017 	ldw	r2,0(r16)
 1083088:	103ff826 	beq	r2,zero,108306c <_read_r+0x3c>
 108308c:	88800015 	stw	r2,0(r17)
 1083090:	1805883a 	mov	r2,r3
 1083094:	dfc00217 	ldw	ra,8(sp)
 1083098:	dc400117 	ldw	r17,4(sp)
 108309c:	dc000017 	ldw	r16,0(sp)
 10830a0:	dec00304 	addi	sp,sp,12
 10830a4:	f800283a 	ret

010830a8 <__mulsi3>:
 10830a8:	20000a26 	beq	r4,zero,10830d4 <__mulsi3+0x2c>
 10830ac:	0007883a 	mov	r3,zero
 10830b0:	2080004c 	andi	r2,r4,1
 10830b4:	1005003a 	cmpeq	r2,r2,zero
 10830b8:	2008d07a 	srli	r4,r4,1
 10830bc:	1000011e 	bne	r2,zero,10830c4 <__mulsi3+0x1c>
 10830c0:	1947883a 	add	r3,r3,r5
 10830c4:	294b883a 	add	r5,r5,r5
 10830c8:	203ff91e 	bne	r4,zero,10830b0 <__mulsi3+0x8>
 10830cc:	1805883a 	mov	r2,r3
 10830d0:	f800283a 	ret
 10830d4:	0007883a 	mov	r3,zero
 10830d8:	1805883a 	mov	r2,r3
 10830dc:	f800283a 	ret

010830e0 <alt_get_errno>:
 10830e0:	00804274 	movhi	r2,265
 10830e4:	10b4ab04 	addi	r2,r2,-11604
 10830e8:	10c00017 	ldw	r3,0(r2)
 10830ec:	00804274 	movhi	r2,265
 10830f0:	10bb8904 	addi	r2,r2,-4572
 10830f4:	18000126 	beq	r3,zero,10830fc <alt_get_errno+0x1c>
 10830f8:	1800683a 	jmp	r3
 10830fc:	f800283a 	ret

01083100 <close>:
 1083100:	defffd04 	addi	sp,sp,-12
 1083104:	dc000015 	stw	r16,0(sp)
 1083108:	dfc00215 	stw	ra,8(sp)
 108310c:	dc400115 	stw	r17,4(sp)
 1083110:	01400304 	movi	r5,12
 1083114:	2021883a 	mov	r16,r4
 1083118:	20001216 	blt	r4,zero,1083164 <close+0x64>
 108311c:	10830a80 	call	10830a8 <__mulsi3>
 1083120:	00c04274 	movhi	r3,265
 1083124:	18f02704 	addi	r3,r3,-16228
 1083128:	10c9883a 	add	r4,r2,r3
 108312c:	20000d26 	beq	r4,zero,1083164 <close+0x64>
 1083130:	20800017 	ldw	r2,0(r4)
 1083134:	10800417 	ldw	r2,16(r2)
 1083138:	10000f26 	beq	r2,zero,1083178 <close+0x78>
 108313c:	103ee83a 	callr	r2
 1083140:	1023883a 	mov	r17,r2
 1083144:	8009883a 	mov	r4,r16
 1083148:	10835980 	call	1083598 <alt_release_fd>
 108314c:	0009883a 	mov	r4,zero
 1083150:	88000c0e 	bge	r17,zero,1083184 <close+0x84>
 1083154:	10830e00 	call	10830e0 <alt_get_errno>
 1083158:	0447c83a 	sub	r3,zero,r17
 108315c:	013fffc4 	movi	r4,-1
 1083160:	00000306 	br	1083170 <close+0x70>
 1083164:	10830e00 	call	10830e0 <alt_get_errno>
 1083168:	013fffc4 	movi	r4,-1
 108316c:	00c01444 	movi	r3,81
 1083170:	10c00015 	stw	r3,0(r2)
 1083174:	00000306 	br	1083184 <close+0x84>
 1083178:	8009883a 	mov	r4,r16
 108317c:	10835980 	call	1083598 <alt_release_fd>
 1083180:	0009883a 	mov	r4,zero
 1083184:	2005883a 	mov	r2,r4
 1083188:	dfc00217 	ldw	ra,8(sp)
 108318c:	dc400117 	ldw	r17,4(sp)
 1083190:	dc000017 	ldw	r16,0(sp)
 1083194:	dec00304 	addi	sp,sp,12
 1083198:	f800283a 	ret

0108319c <alt_dev_null_write>:
 108319c:	3005883a 	mov	r2,r6
 10831a0:	f800283a 	ret

010831a4 <fstat>:
 10831a4:	defffe04 	addi	sp,sp,-8
 10831a8:	dc000015 	stw	r16,0(sp)
 10831ac:	dfc00115 	stw	ra,4(sp)
 10831b0:	2821883a 	mov	r16,r5
 10831b4:	01400304 	movi	r5,12
 10831b8:	20001116 	blt	r4,zero,1083200 <fstat+0x5c>
 10831bc:	10830a80 	call	10830a8 <__mulsi3>
 10831c0:	00c04274 	movhi	r3,265
 10831c4:	18f02704 	addi	r3,r3,-16228
 10831c8:	10c9883a 	add	r4,r2,r3
 10831cc:	20000c26 	beq	r4,zero,1083200 <fstat+0x5c>
 10831d0:	20800017 	ldw	r2,0(r4)
 10831d4:	800b883a 	mov	r5,r16
 10831d8:	0007883a 	mov	r3,zero
 10831dc:	10800817 	ldw	r2,32(r2)
 10831e0:	10000426 	beq	r2,zero,10831f4 <fstat+0x50>
 10831e4:	dfc00117 	ldw	ra,4(sp)
 10831e8:	dc000017 	ldw	r16,0(sp)
 10831ec:	dec00204 	addi	sp,sp,8
 10831f0:	1000683a 	jmp	r2
 10831f4:	00880004 	movi	r2,8192
 10831f8:	80800115 	stw	r2,4(r16)
 10831fc:	00000b06 	br	108322c <fstat+0x88>
 1083200:	00804274 	movhi	r2,265
 1083204:	10b4ab04 	addi	r2,r2,-11604
 1083208:	10800017 	ldw	r2,0(r2)
 108320c:	00c04274 	movhi	r3,265
 1083210:	18fb8904 	addi	r3,r3,-4572
 1083214:	10000226 	beq	r2,zero,1083220 <fstat+0x7c>
 1083218:	103ee83a 	callr	r2
 108321c:	1007883a 	mov	r3,r2
 1083220:	00801444 	movi	r2,81
 1083224:	18800015 	stw	r2,0(r3)
 1083228:	00ffffc4 	movi	r3,-1
 108322c:	1805883a 	mov	r2,r3
 1083230:	dfc00117 	ldw	ra,4(sp)
 1083234:	dc000017 	ldw	r16,0(sp)
 1083238:	dec00204 	addi	sp,sp,8
 108323c:	f800283a 	ret

01083240 <isatty>:
 1083240:	deffef04 	addi	sp,sp,-68
 1083244:	dc000f15 	stw	r16,60(sp)
 1083248:	dfc01015 	stw	ra,64(sp)
 108324c:	01400304 	movi	r5,12
 1083250:	2021883a 	mov	r16,r4
 1083254:	20000f16 	blt	r4,zero,1083294 <isatty+0x54>
 1083258:	10830a80 	call	10830a8 <__mulsi3>
 108325c:	00c04274 	movhi	r3,265
 1083260:	18f02704 	addi	r3,r3,-16228
 1083264:	10c5883a 	add	r2,r2,r3
 1083268:	10000a26 	beq	r2,zero,1083294 <isatty+0x54>
 108326c:	10800017 	ldw	r2,0(r2)
 1083270:	8009883a 	mov	r4,r16
 1083274:	d80b883a 	mov	r5,sp
 1083278:	10800817 	ldw	r2,32(r2)
 108327c:	00c00044 	movi	r3,1
 1083280:	10000f26 	beq	r2,zero,10832c0 <isatty+0x80>
 1083284:	10831a40 	call	10831a4 <fstat>
 1083288:	d8800117 	ldw	r2,4(sp)
 108328c:	10c80020 	cmpeqi	r3,r2,8192
 1083290:	00000b06 	br	10832c0 <isatty+0x80>
 1083294:	00804274 	movhi	r2,265
 1083298:	10b4ab04 	addi	r2,r2,-11604
 108329c:	10800017 	ldw	r2,0(r2)
 10832a0:	00c04274 	movhi	r3,265
 10832a4:	18fb8904 	addi	r3,r3,-4572
 10832a8:	10000226 	beq	r2,zero,10832b4 <isatty+0x74>
 10832ac:	103ee83a 	callr	r2
 10832b0:	1007883a 	mov	r3,r2
 10832b4:	00801444 	movi	r2,81
 10832b8:	18800015 	stw	r2,0(r3)
 10832bc:	0007883a 	mov	r3,zero
 10832c0:	1805883a 	mov	r2,r3
 10832c4:	dfc01017 	ldw	ra,64(sp)
 10832c8:	dc000f17 	ldw	r16,60(sp)
 10832cc:	dec01104 	addi	sp,sp,68
 10832d0:	f800283a 	ret

010832d4 <alt_load_section>:
 10832d4:	2900051e 	bne	r5,r4,10832ec <alt_load_section+0x18>
 10832d8:	f800283a 	ret
 10832dc:	20800017 	ldw	r2,0(r4)
 10832e0:	21000104 	addi	r4,r4,4
 10832e4:	28800015 	stw	r2,0(r5)
 10832e8:	29400104 	addi	r5,r5,4
 10832ec:	29bffb1e 	bne	r5,r6,10832dc <alt_load_section+0x8>
 10832f0:	f800283a 	ret

010832f4 <alt_load>:
 10832f4:	deffff04 	addi	sp,sp,-4
 10832f8:	01004274 	movhi	r4,265
 10832fc:	2134cf04 	addi	r4,r4,-11460
 1083300:	01404274 	movhi	r5,265
 1083304:	296e1b04 	addi	r5,r5,-18324
 1083308:	01804274 	movhi	r6,265
 108330c:	31b4cf04 	addi	r6,r6,-11460
 1083310:	dfc00015 	stw	ra,0(sp)
 1083314:	10832d40 	call	10832d4 <alt_load_section>
 1083318:	01004234 	movhi	r4,264
 108331c:	21000004 	addi	r4,r4,0
 1083320:	01402034 	movhi	r5,128
 1083324:	29400804 	addi	r5,r5,32
 1083328:	01802034 	movhi	r6,128
 108332c:	31805104 	addi	r6,r6,324
 1083330:	10832d40 	call	10832d4 <alt_load_section>
 1083334:	01004274 	movhi	r4,265
 1083338:	212d5f04 	addi	r4,r4,-19076
 108333c:	01404274 	movhi	r5,265
 1083340:	296d5f04 	addi	r5,r5,-19076
 1083344:	01804274 	movhi	r6,265
 1083348:	31ae1b04 	addi	r6,r6,-18324
 108334c:	10832d40 	call	10832d4 <alt_load_section>
 1083350:	1088fdc0 	call	1088fdc <alt_dcache_flush_all>
 1083354:	dfc00017 	ldw	ra,0(sp)
 1083358:	dec00104 	addi	sp,sp,4
 108335c:	10890d01 	jmpi	10890d0 <alt_icache_flush_all>

01083360 <lseek>:
 1083360:	defffd04 	addi	sp,sp,-12
 1083364:	dc400115 	stw	r17,4(sp)
 1083368:	dc000015 	stw	r16,0(sp)
 108336c:	dfc00215 	stw	ra,8(sp)
 1083370:	2821883a 	mov	r16,r5
 1083374:	3023883a 	mov	r17,r6
 1083378:	20001f16 	blt	r4,zero,10833f8 <lseek+0x98>
 108337c:	01400304 	movi	r5,12
 1083380:	10830a80 	call	10830a8 <__mulsi3>
 1083384:	00c04274 	movhi	r3,265
 1083388:	18f02704 	addi	r3,r3,-16228
 108338c:	10c9883a 	add	r4,r2,r3
 1083390:	20001926 	beq	r4,zero,10833f8 <lseek+0x98>
 1083394:	20800017 	ldw	r2,0(r4)
 1083398:	10800717 	ldw	r2,28(r2)
 108339c:	1000021e 	bne	r2,zero,10833a8 <lseek+0x48>
 10833a0:	043fde84 	movi	r16,-134
 10833a4:	00000706 	br	10833c4 <lseek+0x64>
 10833a8:	800b883a 	mov	r5,r16
 10833ac:	880d883a 	mov	r6,r17
 10833b0:	103ee83a 	callr	r2
 10833b4:	10000216 	blt	r2,zero,10833c0 <lseek+0x60>
 10833b8:	1007883a 	mov	r3,r2
 10833bc:	00001006 	br	1083400 <lseek+0xa0>
 10833c0:	1021883a 	mov	r16,r2
 10833c4:	00804274 	movhi	r2,265
 10833c8:	10b4ab04 	addi	r2,r2,-11604
 10833cc:	10800017 	ldw	r2,0(r2)
 10833d0:	1000031e 	bne	r2,zero,10833e0 <lseek+0x80>
 10833d4:	01004274 	movhi	r4,265
 10833d8:	213b8904 	addi	r4,r4,-4572
 10833dc:	00000206 	br	10833e8 <lseek+0x88>
 10833e0:	103ee83a 	callr	r2
 10833e4:	1009883a 	mov	r4,r2
 10833e8:	0405c83a 	sub	r2,zero,r16
 10833ec:	00ffffc4 	movi	r3,-1
 10833f0:	20800015 	stw	r2,0(r4)
 10833f4:	00000206 	br	1083400 <lseek+0xa0>
 10833f8:	043febc4 	movi	r16,-81
 10833fc:	003ff106 	br	10833c4 <lseek+0x64>
 1083400:	1805883a 	mov	r2,r3
 1083404:	dfc00217 	ldw	ra,8(sp)
 1083408:	dc400117 	ldw	r17,4(sp)
 108340c:	dc000017 	ldw	r16,0(sp)
 1083410:	dec00304 	addi	sp,sp,12
 1083414:	f800283a 	ret

01083418 <alt_main>:
 1083418:	defffd04 	addi	sp,sp,-12
 108341c:	0009883a 	mov	r4,zero
 1083420:	dfc00215 	stw	ra,8(sp)
 1083424:	dc400115 	stw	r17,4(sp)
 1083428:	dc000015 	stw	r16,0(sp)
 108342c:	04400044 	movi	r17,1
 1083430:	10887900 	call	1088790 <alt_irq_init>
 1083434:	1083dec0 	call	1083dec <OSInit>
 1083438:	8809883a 	mov	r4,r17
 108343c:	108646c0 	call	108646c <OSSemCreate>
 1083440:	00c04274 	movhi	r3,265
 1083444:	18fb8f04 	addi	r3,r3,-4548
 1083448:	8809883a 	mov	r4,r17
 108344c:	18800015 	stw	r2,0(r3)
 1083450:	108646c0 	call	108646c <OSSemCreate>
 1083454:	00c04274 	movhi	r3,265
 1083458:	18fb9104 	addi	r3,r3,-4540
 108345c:	8809883a 	mov	r4,r17
 1083460:	18800015 	stw	r2,0(r3)
 1083464:	108646c0 	call	108646c <OSSemCreate>
 1083468:	00c04274 	movhi	r3,265
 108346c:	18fb8a04 	addi	r3,r3,-4568
 1083470:	18800015 	stw	r2,0(r3)
 1083474:	10887240 	call	1088724 <alt_sys_init>
 1083478:	01004274 	movhi	r4,265
 108347c:	212d7b04 	addi	r4,r4,-18964
 1083480:	200b883a 	mov	r5,r4
 1083484:	200d883a 	mov	r6,r4
 1083488:	10892640 	call	1089264 <alt_io_redirect>
 108348c:	10890500 	call	1089050 <_do_ctors>
 1083490:	01004274 	movhi	r4,265
 1083494:	21242404 	addi	r4,r4,-28528
 1083498:	10899fc0 	call	10899fc <atexit>
 108349c:	d166ea17 	ldw	r5,-25688(gp)
 10834a0:	d1a6eb17 	ldw	r6,-25684(gp)
 10834a4:	d126e917 	ldw	r4,-25692(gp)
 10834a8:	10803540 	call	1080354 <main>
 10834ac:	1021883a 	mov	r16,r2
 10834b0:	8809883a 	mov	r4,r17
 10834b4:	10831000 	call	1083100 <close>
 10834b8:	8009883a 	mov	r4,r16
 10834bc:	1089a100 	call	1089a10 <exit>

010834c0 <alt_get_errno>:
 10834c0:	00804274 	movhi	r2,265
 10834c4:	10b4ab04 	addi	r2,r2,-11604
 10834c8:	10c00017 	ldw	r3,0(r2)
 10834cc:	00804274 	movhi	r2,265
 10834d0:	10bb8904 	addi	r2,r2,-4572
 10834d4:	18000126 	beq	r3,zero,10834dc <alt_get_errno+0x1c>
 10834d8:	1800683a 	jmp	r3
 10834dc:	f800283a 	ret

010834e0 <read>:
 10834e0:	defffc04 	addi	sp,sp,-16
 10834e4:	dc800215 	stw	r18,8(sp)
 10834e8:	dc400115 	stw	r17,4(sp)
 10834ec:	dfc00315 	stw	ra,12(sp)
 10834f0:	2823883a 	mov	r17,r5
 10834f4:	dc000015 	stw	r16,0(sp)
 10834f8:	3025883a 	mov	r18,r6
 10834fc:	01400304 	movi	r5,12
 1083500:	20001a16 	blt	r4,zero,108356c <read+0x8c>
 1083504:	10830a80 	call	10830a8 <__mulsi3>
 1083508:	00c04274 	movhi	r3,265
 108350c:	18f02704 	addi	r3,r3,-16228
 1083510:	10c9883a 	add	r4,r2,r3
 1083514:	20001526 	beq	r4,zero,108356c <read+0x8c>
 1083518:	20800217 	ldw	r2,8(r4)
 108351c:	00c00044 	movi	r3,1
 1083520:	043fffc4 	movi	r16,-1
 1083524:	108000cc 	andi	r2,r2,3
 1083528:	10c00c26 	beq	r2,r3,108355c <read+0x7c>
 108352c:	20800017 	ldw	r2,0(r4)
 1083530:	880b883a 	mov	r5,r17
 1083534:	900d883a 	mov	r6,r18
 1083538:	10800517 	ldw	r2,20(r2)
 108353c:	10000726 	beq	r2,zero,108355c <read+0x7c>
 1083540:	103ee83a 	callr	r2
 1083544:	1021883a 	mov	r16,r2
 1083548:	10000c0e 	bge	r2,zero,108357c <read+0x9c>
 108354c:	10834c00 	call	10834c0 <alt_get_errno>
 1083550:	0407c83a 	sub	r3,zero,r16
 1083554:	043fffc4 	movi	r16,-1
 1083558:	00000206 	br	1083564 <read+0x84>
 108355c:	10834c00 	call	10834c0 <alt_get_errno>
 1083560:	00c00344 	movi	r3,13
 1083564:	10c00015 	stw	r3,0(r2)
 1083568:	00000406 	br	108357c <read+0x9c>
 108356c:	10834c00 	call	10834c0 <alt_get_errno>
 1083570:	00c01444 	movi	r3,81
 1083574:	10c00015 	stw	r3,0(r2)
 1083578:	043fffc4 	movi	r16,-1
 108357c:	8005883a 	mov	r2,r16
 1083580:	dfc00317 	ldw	ra,12(sp)
 1083584:	dc800217 	ldw	r18,8(sp)
 1083588:	dc400117 	ldw	r17,4(sp)
 108358c:	dc000017 	ldw	r16,0(sp)
 1083590:	dec00404 	addi	sp,sp,16
 1083594:	f800283a 	ret

01083598 <alt_release_fd>:
 1083598:	defffd04 	addi	sp,sp,-12
 108359c:	00800084 	movi	r2,2
 10835a0:	dc400115 	stw	r17,4(sp)
 10835a4:	dc000015 	stw	r16,0(sp)
 10835a8:	dfc00215 	stw	ra,8(sp)
 10835ac:	01400304 	movi	r5,12
 10835b0:	04404274 	movhi	r17,265
 10835b4:	8c702704 	addi	r17,r17,-16228
 10835b8:	2021883a 	mov	r16,r4
 10835bc:	1100080e 	bge	r2,r4,10835e0 <alt_release_fd+0x48>
 10835c0:	10830a80 	call	10830a8 <__mulsi3>
 10835c4:	1445883a 	add	r2,r2,r17
 10835c8:	8009883a 	mov	r4,r16
 10835cc:	01400304 	movi	r5,12
 10835d0:	10000215 	stw	zero,8(r2)
 10835d4:	10830a80 	call	10830a8 <__mulsi3>
 10835d8:	1445883a 	add	r2,r2,r17
 10835dc:	10000015 	stw	zero,0(r2)
 10835e0:	dfc00217 	ldw	ra,8(sp)
 10835e4:	dc400117 	ldw	r17,4(sp)
 10835e8:	dc000017 	ldw	r16,0(sp)
 10835ec:	dec00304 	addi	sp,sp,12
 10835f0:	f800283a 	ret

010835f4 <sbrk>:
 10835f4:	000b303a 	rdctl	r5,status
 10835f8:	00bfff84 	movi	r2,-2
 10835fc:	2884703a 	and	r2,r5,r2
 1083600:	1001703a 	wrctl	status,r2
 1083604:	d0a00a17 	ldw	r2,-32728(gp)
 1083608:	00ffff04 	movi	r3,-4
 108360c:	108000c4 	addi	r2,r2,3
 1083610:	10c6703a 	and	r3,r2,r3
 1083614:	1909883a 	add	r4,r3,r4
 1083618:	00804434 	movhi	r2,272
 108361c:	10800004 	addi	r2,r2,0
 1083620:	d0e00a15 	stw	r3,-32728(gp)
 1083624:	1100032e 	bgeu	r2,r4,1083634 <sbrk+0x40>
 1083628:	2801703a 	wrctl	status,r5
 108362c:	00ffffc4 	movi	r3,-1
 1083630:	00000206 	br	108363c <sbrk+0x48>
 1083634:	d1200a15 	stw	r4,-32728(gp)
 1083638:	2801703a 	wrctl	status,r5
 108363c:	1805883a 	mov	r2,r3
 1083640:	f800283a 	ret

01083644 <alt_get_errno>:
 1083644:	00804274 	movhi	r2,265
 1083648:	10b4ab04 	addi	r2,r2,-11604
 108364c:	10c00017 	ldw	r3,0(r2)
 1083650:	00804274 	movhi	r2,265
 1083654:	10bb8904 	addi	r2,r2,-4572
 1083658:	18000126 	beq	r3,zero,1083660 <alt_get_errno+0x1c>
 108365c:	1800683a 	jmp	r3
 1083660:	f800283a 	ret

01083664 <write>:
 1083664:	defffc04 	addi	sp,sp,-16
 1083668:	dc800215 	stw	r18,8(sp)
 108366c:	dc400115 	stw	r17,4(sp)
 1083670:	dfc00315 	stw	ra,12(sp)
 1083674:	2823883a 	mov	r17,r5
 1083678:	dc000015 	stw	r16,0(sp)
 108367c:	3025883a 	mov	r18,r6
 1083680:	01400304 	movi	r5,12
 1083684:	20001916 	blt	r4,zero,10836ec <write+0x88>
 1083688:	10830a80 	call	10830a8 <__mulsi3>
 108368c:	00c04274 	movhi	r3,265
 1083690:	18f02704 	addi	r3,r3,-16228
 1083694:	10c9883a 	add	r4,r2,r3
 1083698:	20001426 	beq	r4,zero,10836ec <write+0x88>
 108369c:	20800217 	ldw	r2,8(r4)
 10836a0:	043fffc4 	movi	r16,-1
 10836a4:	108000cc 	andi	r2,r2,3
 10836a8:	10000c26 	beq	r2,zero,10836dc <write+0x78>
 10836ac:	20800017 	ldw	r2,0(r4)
 10836b0:	880b883a 	mov	r5,r17
 10836b4:	900d883a 	mov	r6,r18
 10836b8:	10800617 	ldw	r2,24(r2)
 10836bc:	10000726 	beq	r2,zero,10836dc <write+0x78>
 10836c0:	103ee83a 	callr	r2
 10836c4:	1021883a 	mov	r16,r2
 10836c8:	10000c0e 	bge	r2,zero,10836fc <write+0x98>
 10836cc:	10836440 	call	1083644 <alt_get_errno>
 10836d0:	0407c83a 	sub	r3,zero,r16
 10836d4:	043fffc4 	movi	r16,-1
 10836d8:	00000206 	br	10836e4 <write+0x80>
 10836dc:	10836440 	call	1083644 <alt_get_errno>
 10836e0:	00c00344 	movi	r3,13
 10836e4:	10c00015 	stw	r3,0(r2)
 10836e8:	00000406 	br	10836fc <write+0x98>
 10836ec:	10836440 	call	1083644 <alt_get_errno>
 10836f0:	00c01444 	movi	r3,81
 10836f4:	10c00015 	stw	r3,0(r2)
 10836f8:	043fffc4 	movi	r16,-1
 10836fc:	8005883a 	mov	r2,r16
 1083700:	dfc00317 	ldw	ra,12(sp)
 1083704:	dc800217 	ldw	r18,8(sp)
 1083708:	dc400117 	ldw	r17,4(sp)
 108370c:	dc000017 	ldw	r16,0(sp)
 1083710:	dec00404 	addi	sp,sp,16
 1083714:	f800283a 	ret

01083718 <__env_unlock>:
 1083718:	d0a6ec17 	ldw	r2,-25680(gp)
 108371c:	10ffffc4 	addi	r3,r2,-1
 1083720:	10000626 	beq	r2,zero,108373c <__env_unlock+0x24>
 1083724:	d0e6ec15 	stw	r3,-25680(gp)
 1083728:	1800041e 	bne	r3,zero,108373c <__env_unlock+0x24>
 108372c:	d126ed17 	ldw	r4,-25676(gp)
 1083730:	00bfffc4 	movi	r2,-1
 1083734:	d0a00b15 	stw	r2,-32724(gp)
 1083738:	10868a01 	jmpi	10868a0 <OSSemPost>
 108373c:	f800283a 	ret

01083740 <__env_lock>:
 1083740:	deffe104 	addi	sp,sp,-124
 1083744:	d9400204 	addi	r5,sp,8
 1083748:	01003fc4 	movi	r4,255
 108374c:	dfc01e15 	stw	ra,120(sp)
 1083750:	dc001d15 	stw	r16,116(sp)
 1083754:	10869d40 	call	10869d4 <OSTaskQuery>
 1083758:	10803fcc 	andi	r2,r2,255
 108375c:	d9400084 	addi	r5,sp,2
 1083760:	1000131e 	bne	r2,zero,10837b0 <__env_lock+0x70>
 1083764:	d126ed17 	ldw	r4,-25676(gp)
 1083768:	d8000005 	stb	zero,0(sp)
 108376c:	dc000e83 	ldbu	r16,58(sp)
 1083770:	108693c0 	call	108693c <OSSemQuery>
 1083774:	d88001c3 	ldbu	r2,7(sp)
 1083778:	000b883a 	mov	r5,zero
 108377c:	d80d883a 	mov	r6,sp
 1083780:	10000626 	beq	r2,zero,108379c <__env_lock+0x5c>
 1083784:	d0a00b17 	ldw	r2,-32724(gp)
 1083788:	8080041e 	bne	r16,r2,108379c <__env_lock+0x5c>
 108378c:	d0a6ec17 	ldw	r2,-25680(gp)
 1083790:	10800044 	addi	r2,r2,1
 1083794:	d0a6ec15 	stw	r2,-25680(gp)
 1083798:	00000506 	br	10837b0 <__env_lock+0x70>
 108379c:	d126ed17 	ldw	r4,-25676(gp)
 10837a0:	108664c0 	call	108664c <OSSemPend>
 10837a4:	00800044 	movi	r2,1
 10837a8:	d0a6ec15 	stw	r2,-25680(gp)
 10837ac:	d4200b15 	stw	r16,-32724(gp)
 10837b0:	dfc01e17 	ldw	ra,120(sp)
 10837b4:	dc001d17 	ldw	r16,116(sp)
 10837b8:	dec01f04 	addi	sp,sp,124
 10837bc:	f800283a 	ret

010837c0 <__malloc_unlock>:
 10837c0:	00804274 	movhi	r2,265
 10837c4:	10bb9504 	addi	r2,r2,-4524
 10837c8:	10c00003 	ldbu	r3,0(r2)
 10837cc:	00800044 	movi	r2,1
 10837d0:	1880111e 	bne	r3,r2,1083818 <__malloc_unlock+0x58>
 10837d4:	0009303a 	rdctl	r4,status
 10837d8:	00bfff84 	movi	r2,-2
 10837dc:	2084703a 	and	r2,r4,r2
 10837e0:	1001703a 	wrctl	status,r2
 10837e4:	d0a6ee17 	ldw	r2,-25672(gp)
 10837e8:	10c7c83a 	sub	r3,r2,r3
 10837ec:	1000021e 	bne	r2,zero,10837f8 <__malloc_unlock+0x38>
 10837f0:	2001703a 	wrctl	status,r4
 10837f4:	f800283a 	ret
 10837f8:	d0e6ee15 	stw	r3,-25672(gp)
 10837fc:	1800051e 	bne	r3,zero,1083814 <__malloc_unlock+0x54>
 1083800:	00bfffc4 	movi	r2,-1
 1083804:	d0a00c15 	stw	r2,-32720(gp)
 1083808:	2001703a 	wrctl	status,r4
 108380c:	d126ef17 	ldw	r4,-25668(gp)
 1083810:	10868a01 	jmpi	10868a0 <OSSemPost>
 1083814:	2001703a 	wrctl	status,r4
 1083818:	f800283a 	ret

0108381c <__malloc_lock>:
 108381c:	deffe004 	addi	sp,sp,-128
 1083820:	00804274 	movhi	r2,265
 1083824:	10bb9504 	addi	r2,r2,-4524
 1083828:	dfc01f15 	stw	ra,124(sp)
 108382c:	dc401e15 	stw	r17,120(sp)
 1083830:	dc001d15 	stw	r16,116(sp)
 1083834:	14400003 	ldbu	r17,0(r2)
 1083838:	00800044 	movi	r2,1
 108383c:	d9400204 	addi	r5,sp,8
 1083840:	01003fc4 	movi	r4,255
 1083844:	88801d1e 	bne	r17,r2,10838bc <__malloc_lock+0xa0>
 1083848:	10869d40 	call	10869d4 <OSTaskQuery>
 108384c:	10803fcc 	andi	r2,r2,255
 1083850:	d9400084 	addi	r5,sp,2
 1083854:	1000191e 	bne	r2,zero,10838bc <__malloc_lock+0xa0>
 1083858:	d126ef17 	ldw	r4,-25668(gp)
 108385c:	dc000e83 	ldbu	r16,58(sp)
 1083860:	d8000005 	stb	zero,0(sp)
 1083864:	108693c0 	call	108693c <OSSemQuery>
 1083868:	0007303a 	rdctl	r3,status
 108386c:	00bfff84 	movi	r2,-2
 1083870:	1884703a 	and	r2,r3,r2
 1083874:	1001703a 	wrctl	status,r2
 1083878:	d880008b 	ldhu	r2,2(sp)
 108387c:	1000071e 	bne	r2,zero,108389c <__malloc_lock+0x80>
 1083880:	d0a00c17 	ldw	r2,-32720(gp)
 1083884:	8080051e 	bne	r16,r2,108389c <__malloc_lock+0x80>
 1083888:	d0a6ee17 	ldw	r2,-25672(gp)
 108388c:	1445883a 	add	r2,r2,r17
 1083890:	d0a6ee15 	stw	r2,-25672(gp)
 1083894:	1801703a 	wrctl	status,r3
 1083898:	00000806 	br	10838bc <__malloc_lock+0xa0>
 108389c:	1801703a 	wrctl	status,r3
 10838a0:	d126ef17 	ldw	r4,-25668(gp)
 10838a4:	000b883a 	mov	r5,zero
 10838a8:	d80d883a 	mov	r6,sp
 10838ac:	108664c0 	call	108664c <OSSemPend>
 10838b0:	00800044 	movi	r2,1
 10838b4:	d0a6ee15 	stw	r2,-25672(gp)
 10838b8:	d4200c15 	stw	r16,-32720(gp)
 10838bc:	dfc01f17 	ldw	ra,124(sp)
 10838c0:	dc401e17 	ldw	r17,120(sp)
 10838c4:	dc001d17 	ldw	r16,116(sp)
 10838c8:	dec02004 	addi	sp,sp,128
 10838cc:	f800283a 	ret

010838d0 <OSVersion>:
 10838d0:	00804784 	movi	r2,286
 10838d4:	f800283a 	ret

010838d8 <OS_Dummy>:
 10838d8:	f800283a 	ret

010838dc <OS_EventTaskWait>:
 10838dc:	d0a70317 	ldw	r2,-25588(gp)
 10838e0:	10c00d03 	ldbu	r3,52(r2)
 10838e4:	11000715 	stw	r4,28(r2)
 10838e8:	11800d43 	ldbu	r6,53(r2)
 10838ec:	1907883a 	add	r3,r3,r4
 10838f0:	18c00204 	addi	r3,r3,8
 10838f4:	188000c3 	ldbu	r2,3(r3)
 10838f8:	21400283 	ldbu	r5,10(r4)
 10838fc:	1184b03a 	or	r2,r2,r6
 1083900:	188000c5 	stb	r2,3(r3)
 1083904:	d0a70317 	ldw	r2,-25588(gp)
 1083908:	d0e70044 	addi	r3,gp,-25599
 108390c:	10800d83 	ldbu	r2,54(r2)
 1083910:	288ab03a 	or	r5,r5,r2
 1083914:	21400285 	stb	r5,10(r4)
 1083918:	d1670317 	ldw	r5,-25588(gp)
 108391c:	29000d03 	ldbu	r4,52(r5)
 1083920:	28800d43 	ldbu	r2,53(r5)
 1083924:	20c9883a 	add	r4,r4,r3
 1083928:	20c00003 	ldbu	r3,0(r4)
 108392c:	0084303a 	nor	r2,zero,r2
 1083930:	10c4703a 	and	r2,r2,r3
 1083934:	10c03fcc 	andi	r3,r2,255
 1083938:	18c0201c 	xori	r3,r3,128
 108393c:	18ffe004 	addi	r3,r3,-128
 1083940:	20800005 	stb	r2,0(r4)
 1083944:	1800051e 	bne	r3,zero,108395c <OS_EventTaskWait+0x80>
 1083948:	28800d83 	ldbu	r2,54(r5)
 108394c:	d0e70003 	ldbu	r3,-25600(gp)
 1083950:	0084303a 	nor	r2,zero,r2
 1083954:	10c4703a 	and	r2,r2,r3
 1083958:	d0a70005 	stb	r2,-25600(gp)
 108395c:	f800283a 	ret

01083960 <OS_EventTaskWaitMulti>:
 1083960:	d0a70317 	ldw	r2,-25588(gp)
 1083964:	200f883a 	mov	r7,r4
 1083968:	10000715 	stw	zero,28(r2)
 108396c:	21800017 	ldw	r6,0(r4)
 1083970:	11000815 	stw	r4,32(r2)
 1083974:	00000d06 	br	10839ac <OS_EventTaskWaitMulti+0x4c>
 1083978:	28c00d03 	ldbu	r3,52(r5)
 108397c:	29400d43 	ldbu	r5,53(r5)
 1083980:	31000283 	ldbu	r4,10(r6)
 1083984:	1987883a 	add	r3,r3,r6
 1083988:	18c00204 	addi	r3,r3,8
 108398c:	188000c3 	ldbu	r2,3(r3)
 1083990:	1144b03a 	or	r2,r2,r5
 1083994:	188000c5 	stb	r2,3(r3)
 1083998:	d0a70317 	ldw	r2,-25588(gp)
 108399c:	10800d83 	ldbu	r2,54(r2)
 10839a0:	2088b03a 	or	r4,r4,r2
 10839a4:	31000285 	stb	r4,10(r6)
 10839a8:	39800017 	ldw	r6,0(r7)
 10839ac:	39c00104 	addi	r7,r7,4
 10839b0:	d1670317 	ldw	r5,-25588(gp)
 10839b4:	303ff01e 	bne	r6,zero,1083978 <OS_EventTaskWaitMulti+0x18>
 10839b8:	29000d03 	ldbu	r4,52(r5)
 10839bc:	d0e70044 	addi	r3,gp,-25599
 10839c0:	28800d43 	ldbu	r2,53(r5)
 10839c4:	20c9883a 	add	r4,r4,r3
 10839c8:	20c00003 	ldbu	r3,0(r4)
 10839cc:	0084303a 	nor	r2,zero,r2
 10839d0:	10c4703a 	and	r2,r2,r3
 10839d4:	10c03fcc 	andi	r3,r2,255
 10839d8:	18c0201c 	xori	r3,r3,128
 10839dc:	18ffe004 	addi	r3,r3,-128
 10839e0:	20800005 	stb	r2,0(r4)
 10839e4:	1800051e 	bne	r3,zero,10839fc <OS_EventTaskWaitMulti+0x9c>
 10839e8:	28800d83 	ldbu	r2,54(r5)
 10839ec:	d0e70003 	ldbu	r3,-25600(gp)
 10839f0:	0084303a 	nor	r2,zero,r2
 10839f4:	10c4703a 	and	r2,r2,r3
 10839f8:	d0a70005 	stb	r2,-25600(gp)
 10839fc:	f800283a 	ret

01083a00 <OS_EventTaskRemove>:
 1083a00:	20c00d03 	ldbu	r3,52(r4)
 1083a04:	20800d43 	ldbu	r2,53(r4)
 1083a08:	200d883a 	mov	r6,r4
 1083a0c:	1947883a 	add	r3,r3,r5
 1083a10:	18c00204 	addi	r3,r3,8
 1083a14:	190000c3 	ldbu	r4,3(r3)
 1083a18:	0084303a 	nor	r2,zero,r2
 1083a1c:	1104703a 	and	r2,r2,r4
 1083a20:	11003fcc 	andi	r4,r2,255
 1083a24:	2100201c 	xori	r4,r4,128
 1083a28:	213fe004 	addi	r4,r4,-128
 1083a2c:	188000c5 	stb	r2,3(r3)
 1083a30:	2000051e 	bne	r4,zero,1083a48 <OS_EventTaskRemove+0x48>
 1083a34:	30800d83 	ldbu	r2,54(r6)
 1083a38:	28c00283 	ldbu	r3,10(r5)
 1083a3c:	0084303a 	nor	r2,zero,r2
 1083a40:	10c4703a 	and	r2,r2,r3
 1083a44:	28800285 	stb	r2,10(r5)
 1083a48:	f800283a 	ret

01083a4c <OS_EventTaskRemoveMulti>:
 1083a4c:	20c00d83 	ldbu	r3,54(r4)
 1083a50:	20800d43 	ldbu	r2,53(r4)
 1083a54:	22400d03 	ldbu	r9,52(r4)
 1083a58:	29000017 	ldw	r4,0(r5)
 1083a5c:	0090303a 	nor	r8,zero,r2
 1083a60:	00ce303a 	nor	r7,zero,r3
 1083a64:	00000b06 	br	1083a94 <OS_EventTaskRemoveMulti+0x48>
 1083a68:	308000c3 	ldbu	r2,3(r6)
 1083a6c:	4084703a 	and	r2,r8,r2
 1083a70:	10c03fcc 	andi	r3,r2,255
 1083a74:	18c0201c 	xori	r3,r3,128
 1083a78:	18ffe004 	addi	r3,r3,-128
 1083a7c:	308000c5 	stb	r2,3(r6)
 1083a80:	1800031e 	bne	r3,zero,1083a90 <OS_EventTaskRemoveMulti+0x44>
 1083a84:	20800283 	ldbu	r2,10(r4)
 1083a88:	3884703a 	and	r2,r7,r2
 1083a8c:	20800285 	stb	r2,10(r4)
 1083a90:	29000017 	ldw	r4,0(r5)
 1083a94:	4905883a 	add	r2,r9,r4
 1083a98:	11800204 	addi	r6,r2,8
 1083a9c:	29400104 	addi	r5,r5,4
 1083aa0:	203ff11e 	bne	r4,zero,1083a68 <OS_EventTaskRemoveMulti+0x1c>
 1083aa4:	f800283a 	ret

01083aa8 <OS_EventTaskRdy>:
 1083aa8:	defffc04 	addi	sp,sp,-16
 1083aac:	dc800215 	stw	r18,8(sp)
 1083ab0:	dc400115 	stw	r17,4(sp)
 1083ab4:	dc000015 	stw	r16,0(sp)
 1083ab8:	dfc00315 	stw	ra,12(sp)
 1083abc:	20800283 	ldbu	r2,10(r4)
 1083ac0:	02404274 	movhi	r9,265
 1083ac4:	4a6d8784 	addi	r9,r9,-18914
 1083ac8:	2025883a 	mov	r18,r4
 1083acc:	1245883a 	add	r2,r2,r9
 1083ad0:	11000003 	ldbu	r4,0(r2)
 1083ad4:	018c303a 	nor	r6,zero,r6
 1083ad8:	22003fcc 	andi	r8,r4,255
 1083adc:	4485883a 	add	r2,r8,r18
 1083ae0:	10c002c3 	ldbu	r3,11(r2)
 1083ae4:	d0a70044 	addi	r2,gp,-25599
 1083ae8:	200890fa 	slli	r4,r4,3
 1083aec:	1a47883a 	add	r3,r3,r9
 1083af0:	4091883a 	add	r8,r8,r2
 1083af4:	18800003 	ldbu	r2,0(r3)
 1083af8:	00c042b4 	movhi	r3,266
 1083afc:	18e30204 	addi	r3,r3,-29688
 1083b00:	2089883a 	add	r4,r4,r2
 1083b04:	24403fcc 	andi	r17,r4,255
 1083b08:	8c45883a 	add	r2,r17,r17
 1083b0c:	1085883a 	add	r2,r2,r2
 1083b10:	10c5883a 	add	r2,r2,r3
 1083b14:	14000017 	ldw	r16,0(r2)
 1083b18:	80800c03 	ldbu	r2,48(r16)
 1083b1c:	81400915 	stw	r5,36(r16)
 1083b20:	8009883a 	mov	r4,r16
 1083b24:	308c703a 	and	r6,r6,r2
 1083b28:	30803fcc 	andi	r2,r6,255
 1083b2c:	1080020c 	andi	r2,r2,8
 1083b30:	81c00c45 	stb	r7,49(r16)
 1083b34:	81800c05 	stb	r6,48(r16)
 1083b38:	900b883a 	mov	r5,r18
 1083b3c:	80000b8d 	sth	zero,46(r16)
 1083b40:	1000081e 	bne	r2,zero,1083b64 <OS_EventTaskRdy+0xbc>
 1083b44:	81800d83 	ldbu	r6,54(r16)
 1083b48:	d0a70003 	ldbu	r2,-25600(gp)
 1083b4c:	40c00003 	ldbu	r3,0(r8)
 1083b50:	1184b03a 	or	r2,r2,r6
 1083b54:	d0a70005 	stb	r2,-25600(gp)
 1083b58:	80800d43 	ldbu	r2,53(r16)
 1083b5c:	1886b03a 	or	r3,r3,r2
 1083b60:	40c00005 	stb	r3,0(r8)
 1083b64:	1083a000 	call	1083a00 <OS_EventTaskRemove>
 1083b68:	80800817 	ldw	r2,32(r16)
 1083b6c:	8009883a 	mov	r4,r16
 1083b70:	100b883a 	mov	r5,r2
 1083b74:	10000226 	beq	r2,zero,1083b80 <OS_EventTaskRdy+0xd8>
 1083b78:	1083a4c0 	call	1083a4c <OS_EventTaskRemoveMulti>
 1083b7c:	84800715 	stw	r18,28(r16)
 1083b80:	8805883a 	mov	r2,r17
 1083b84:	dfc00317 	ldw	ra,12(sp)
 1083b88:	dc800217 	ldw	r18,8(sp)
 1083b8c:	dc400117 	ldw	r17,4(sp)
 1083b90:	dc000017 	ldw	r16,0(sp)
 1083b94:	dec00404 	addi	sp,sp,16
 1083b98:	f800283a 	ret

01083b9c <OS_EventWaitListInit>:
 1083b9c:	20000285 	stb	zero,10(r4)
 1083ba0:	210002c4 	addi	r4,r4,11
 1083ba4:	20000005 	stb	zero,0(r4)
 1083ba8:	21000044 	addi	r4,r4,1
 1083bac:	20000045 	stb	zero,1(r4)
 1083bb0:	20000005 	stb	zero,0(r4)
 1083bb4:	f800283a 	ret

01083bb8 <OS_MemClr>:
 1083bb8:	00000206 	br	1083bc4 <OS_MemClr+0xc>
 1083bbc:	20000005 	stb	zero,0(r4)
 1083bc0:	21000044 	addi	r4,r4,1
 1083bc4:	28bfffcc 	andi	r2,r5,65535
 1083bc8:	297fffc4 	addi	r5,r5,-1
 1083bcc:	103ffb1e 	bne	r2,zero,1083bbc <OS_MemClr+0x4>
 1083bd0:	f800283a 	ret

01083bd4 <OS_MemCopy>:
 1083bd4:	00000406 	br	1083be8 <OS_MemCopy+0x14>
 1083bd8:	28800003 	ldbu	r2,0(r5)
 1083bdc:	29400044 	addi	r5,r5,1
 1083be0:	20800005 	stb	r2,0(r4)
 1083be4:	21000044 	addi	r4,r4,1
 1083be8:	30bfffcc 	andi	r2,r6,65535
 1083bec:	31bfffc4 	addi	r6,r6,-1
 1083bf0:	103ff91e 	bne	r2,zero,1083bd8 <OS_MemCopy+0x4>
 1083bf4:	f800283a 	ret

01083bf8 <OS_StrCopy>:
 1083bf8:	2007883a 	mov	r3,r4
 1083bfc:	00000206 	br	1083c08 <OS_StrCopy+0x10>
 1083c00:	18800005 	stb	r2,0(r3)
 1083c04:	18c00044 	addi	r3,r3,1
 1083c08:	28800003 	ldbu	r2,0(r5)
 1083c0c:	29400044 	addi	r5,r5,1
 1083c10:	103ffb1e 	bne	r2,zero,1083c00 <OS_StrCopy+0x8>
 1083c14:	1905c83a 	sub	r2,r3,r4
 1083c18:	10803fcc 	andi	r2,r2,255
 1083c1c:	18000005 	stb	zero,0(r3)
 1083c20:	f800283a 	ret

01083c24 <OS_StrLen>:
 1083c24:	2007883a 	mov	r3,r4
 1083c28:	00000106 	br	1083c30 <OS_StrLen+0xc>
 1083c2c:	18c00044 	addi	r3,r3,1
 1083c30:	18800003 	ldbu	r2,0(r3)
 1083c34:	103ffd1e 	bne	r2,zero,1083c2c <OS_StrLen+0x8>
 1083c38:	1905c83a 	sub	r2,r3,r4
 1083c3c:	10803fcc 	andi	r2,r2,255
 1083c40:	f800283a 	ret

01083c44 <OS_TaskStatStkChk>:
 1083c44:	defffb04 	addi	sp,sp,-20
 1083c48:	dc400315 	stw	r17,12(sp)
 1083c4c:	dc000215 	stw	r16,8(sp)
 1083c50:	dfc00415 	stw	ra,16(sp)
 1083c54:	0021883a 	mov	r16,zero
 1083c58:	044042b4 	movhi	r17,266
 1083c5c:	8c630204 	addi	r17,r17,-29688
 1083c60:	8009883a 	mov	r4,r16
 1083c64:	d80b883a 	mov	r5,sp
 1083c68:	10875e40 	call	10875e4 <OSTaskStkChk>
 1083c6c:	10803fcc 	andi	r2,r2,255
 1083c70:	84000044 	addi	r16,r16,1
 1083c74:	10000c1e 	bne	r2,zero,1083ca8 <OS_TaskStatStkChk+0x64>
 1083c78:	89000017 	ldw	r4,0(r17)
 1083c7c:	20000a26 	beq	r4,zero,1083ca8 <OS_TaskStatStkChk+0x64>
 1083c80:	00800044 	movi	r2,1
 1083c84:	20800826 	beq	r4,r2,1083ca8 <OS_TaskStatStkChk+0x64>
 1083c88:	20800317 	ldw	r2,12(r4)
 1083c8c:	20c00217 	ldw	r3,8(r4)
 1083c90:	1085883a 	add	r2,r2,r2
 1083c94:	1085883a 	add	r2,r2,r2
 1083c98:	1887883a 	add	r3,r3,r2
 1083c9c:	d8800117 	ldw	r2,4(sp)
 1083ca0:	20c01115 	stw	r3,68(r4)
 1083ca4:	20801215 	stw	r2,72(r4)
 1083ca8:	00800544 	movi	r2,21
 1083cac:	8c400104 	addi	r17,r17,4
 1083cb0:	80bfeb1e 	bne	r16,r2,1083c60 <OS_TaskStatStkChk+0x1c>
 1083cb4:	dfc00417 	ldw	ra,16(sp)
 1083cb8:	dc400317 	ldw	r17,12(sp)
 1083cbc:	dc000217 	ldw	r16,8(sp)
 1083cc0:	dec00504 	addi	sp,sp,20
 1083cc4:	f800283a 	ret

01083cc8 <OS_Sched>:
 1083cc8:	defffe04 	addi	sp,sp,-8
 1083ccc:	dfc00115 	stw	ra,4(sp)
 1083cd0:	dc000015 	stw	r16,0(sp)
 1083cd4:	0021303a 	rdctl	r16,status
 1083cd8:	00bfff84 	movi	r2,-2
 1083cdc:	8084703a 	and	r2,r16,r2
 1083ce0:	1001703a 	wrctl	status,r2
 1083ce4:	d0a70203 	ldbu	r2,-25592(gp)
 1083ce8:	1000201e 	bne	r2,zero,1083d6c <OS_Sched+0xa4>
 1083cec:	d0a6f103 	ldbu	r2,-25660(gp)
 1083cf0:	01404274 	movhi	r5,265
 1083cf4:	296d8784 	addi	r5,r5,-18914
 1083cf8:	10001c1e 	bne	r2,zero,1083d6c <OS_Sched+0xa4>
 1083cfc:	d0a70003 	ldbu	r2,-25600(gp)
 1083d00:	d0e70044 	addi	r3,gp,-25599
 1083d04:	d1a6f5c3 	ldbu	r6,-25641(gp)
 1083d08:	1145883a 	add	r2,r2,r5
 1083d0c:	11000003 	ldbu	r4,0(r2)
 1083d10:	20c5883a 	add	r2,r4,r3
 1083d14:	10800003 	ldbu	r2,0(r2)
 1083d18:	200890fa 	slli	r4,r4,3
 1083d1c:	00c042b4 	movhi	r3,266
 1083d20:	18e30204 	addi	r3,r3,-29688
 1083d24:	1145883a 	add	r2,r2,r5
 1083d28:	10800003 	ldbu	r2,0(r2)
 1083d2c:	2089883a 	add	r4,r4,r2
 1083d30:	21403fcc 	andi	r5,r4,255
 1083d34:	2945883a 	add	r2,r5,r5
 1083d38:	1085883a 	add	r2,r2,r2
 1083d3c:	10c5883a 	add	r2,r2,r3
 1083d40:	d126f585 	stb	r4,-25642(gp)
 1083d44:	29800926 	beq	r5,r6,1083d6c <OS_Sched+0xa4>
 1083d48:	10800017 	ldw	r2,0(r2)
 1083d4c:	d126f817 	ldw	r4,-25632(gp)
 1083d50:	10c00e17 	ldw	r3,56(r2)
 1083d54:	21000044 	addi	r4,r4,1
 1083d58:	d0a6fe15 	stw	r2,-25608(gp)
 1083d5c:	18c00044 	addi	r3,r3,1
 1083d60:	10c00e15 	stw	r3,56(r2)
 1083d64:	d126f815 	stw	r4,-25632(gp)
 1083d68:	10895540 	call	1089554 <OSCtxSw>
 1083d6c:	8001703a 	wrctl	status,r16
 1083d70:	dfc00117 	ldw	ra,4(sp)
 1083d74:	dc000017 	ldw	r16,0(sp)
 1083d78:	dec00204 	addi	sp,sp,8
 1083d7c:	f800283a 	ret

01083d80 <OSStart>:
 1083d80:	d0a6f303 	ldbu	r2,-25652(gp)
 1083d84:	01404274 	movhi	r5,265
 1083d88:	296d8784 	addi	r5,r5,-18914
 1083d8c:	1000161e 	bne	r2,zero,1083de8 <OSStart+0x68>
 1083d90:	d0a70003 	ldbu	r2,-25600(gp)
 1083d94:	d0e70044 	addi	r3,gp,-25599
 1083d98:	1145883a 	add	r2,r2,r5
 1083d9c:	11000003 	ldbu	r4,0(r2)
 1083da0:	20c5883a 	add	r2,r4,r3
 1083da4:	10800003 	ldbu	r2,0(r2)
 1083da8:	200890fa 	slli	r4,r4,3
 1083dac:	00c042b4 	movhi	r3,266
 1083db0:	18e30204 	addi	r3,r3,-29688
 1083db4:	1145883a 	add	r2,r2,r5
 1083db8:	10800003 	ldbu	r2,0(r2)
 1083dbc:	2089883a 	add	r4,r4,r2
 1083dc0:	20803fcc 	andi	r2,r4,255
 1083dc4:	1085883a 	add	r2,r2,r2
 1083dc8:	1085883a 	add	r2,r2,r2
 1083dcc:	10c5883a 	add	r2,r2,r3
 1083dd0:	10800017 	ldw	r2,0(r2)
 1083dd4:	d126f585 	stb	r4,-25642(gp)
 1083dd8:	d126f5c5 	stb	r4,-25641(gp)
 1083ddc:	d0a70315 	stw	r2,-25588(gp)
 1083de0:	d0a6fe15 	stw	r2,-25608(gp)
 1083de4:	10895e01 	jmpi	10895e0 <OSStartHighRdy>
 1083de8:	f800283a 	ret

01083dec <OSInit>:
 1083dec:	defff704 	addi	sp,sp,-36
 1083df0:	dfc00815 	stw	ra,32(sp)
 1083df4:	dc000615 	stw	r16,24(sp)
 1083df8:	dc400715 	stw	r17,28(sp)
 1083dfc:	10896340 	call	1089634 <OSInitHookBegin>
 1083e00:	d0a70044 	addi	r2,gp,-25599
 1083e04:	10000085 	stb	zero,2(r2)
 1083e08:	10000045 	stb	zero,1(r2)
 1083e0c:	d0270515 	stw	zero,-25580(gp)
 1083e10:	010042b4 	movhi	r4,266
 1083e14:	2121be04 	addi	r4,r4,-30984
 1083e18:	01414404 	movi	r5,1296
 1083e1c:	d0270205 	stb	zero,-25592(gp)
 1083e20:	d026f105 	stb	zero,-25660(gp)
 1083e24:	d026fc45 	stb	zero,-25615(gp)
 1083e28:	d026f305 	stb	zero,-25652(gp)
 1083e2c:	d026f815 	stw	zero,-25632(gp)
 1083e30:	d026f415 	stw	zero,-25648(gp)
 1083e34:	d0270915 	stw	zero,-25564(gp)
 1083e38:	d026fa15 	stw	zero,-25624(gp)
 1083e3c:	d0270805 	stb	zero,-25568(gp)
 1083e40:	d0270005 	stb	zero,-25600(gp)
 1083e44:	d0270045 	stb	zero,-25599(gp)
 1083e48:	d026f5c5 	stb	zero,-25641(gp)
 1083e4c:	d026f585 	stb	zero,-25642(gp)
 1083e50:	d026fe15 	stw	zero,-25608(gp)
 1083e54:	d0270315 	stw	zero,-25588(gp)
 1083e58:	1083bb80 	call	1083bb8 <OS_MemClr>
 1083e5c:	010042b4 	movhi	r4,266
 1083e60:	21230204 	addi	r4,r4,-29688
 1083e64:	01401504 	movi	r5,84
 1083e68:	1083bb80 	call	1083bb8 <OS_MemClr>
 1083e6c:	008042b4 	movhi	r2,266
 1083e70:	10a1d904 	addi	r2,r2,-30876
 1083e74:	04000fc4 	movi	r16,63
 1083e78:	10c12904 	addi	r3,r2,1188
 1083e7c:	10bfea15 	stw	r2,-88(r2)
 1083e80:	143ff805 	stb	r16,-32(r2)
 1083e84:	103ff845 	stb	zero,-31(r2)
 1083e88:	10801b04 	addi	r2,r2,108
 1083e8c:	10fffb1e 	bne	r2,r3,1083e7c <OSInit+0x90>
 1083e90:	10febc04 	addi	r3,r2,-1296
 1083e94:	10bfe504 	addi	r2,r2,-108
 1083e98:	10001345 	stb	zero,77(r2)
 1083e9c:	d0e6fb15 	stw	r3,-25620(gp)
 1083ea0:	10000515 	stw	zero,20(r2)
 1083ea4:	14001305 	stb	r16,76(r2)
 1083ea8:	01004274 	movhi	r4,265
 1083eac:	211eee04 	addi	r4,r4,31672
 1083eb0:	0142d004 	movi	r5,2880
 1083eb4:	d026f615 	stw	zero,-25640(gp)
 1083eb8:	1083bb80 	call	1083bb8 <OS_MemClr>
 1083ebc:	01004274 	movhi	r4,265
 1083ec0:	211efa04 	addi	r4,r4,31720
 1083ec4:	800b883a 	mov	r5,r16
 1083ec8:	2082c404 	addi	r2,r4,2832
 1083ecc:	203ff405 	stb	zero,-48(r4)
 1083ed0:	213ff515 	stw	r4,-44(r4)
 1083ed4:	217ff785 	stb	r5,-34(r4)
 1083ed8:	203ff7c5 	stb	zero,-33(r4)
 1083edc:	21000c04 	addi	r4,r4,48
 1083ee0:	20bffa1e 	bne	r4,r2,1083ecc <OSInit+0xe0>
 1083ee4:	20bff404 	addi	r2,r4,-48
 1083ee8:	20fd3004 	addi	r3,r4,-2880
 1083eec:	11400385 	stb	r5,14(r2)
 1083ef0:	100003c5 	stb	zero,15(r2)
 1083ef4:	d0e70115 	stw	r3,-25596(gp)
 1083ef8:	203ff405 	stb	zero,-48(r4)
 1083efc:	10000115 	stw	zero,4(r2)
 1083f00:	1084b700 	call	1084b70 <OS_FlagInit>
 1083f04:	10856480 	call	1085648 <OS_MemInit>
 1083f08:	1085a000 	call	1085a00 <OS_QInit>
 1083f0c:	00c04274 	movhi	r3,265
 1083f10:	18dcee04 	addi	r3,r3,29624
 1083f14:	1981ff04 	addi	r6,r3,2044
 1083f18:	01c00504 	movi	r7,20
 1083f1c:	04008004 	movi	r16,512
 1083f20:	044000c4 	movi	r17,3
 1083f24:	01004234 	movhi	r4,264
 1083f28:	21118804 	addi	r4,r4,17952
 1083f2c:	000b883a 	mov	r5,zero
 1083f30:	00bfffd4 	movui	r2,65535
 1083f34:	d8c00115 	stw	r3,4(sp)
 1083f38:	d8800015 	stw	r2,0(sp)
 1083f3c:	dc000215 	stw	r16,8(sp)
 1083f40:	d8000315 	stw	zero,12(sp)
 1083f44:	dc400415 	stw	r17,16(sp)
 1083f48:	1086e440 	call	1086e44 <OSTaskCreateExt>
 1083f4c:	01000504 	movi	r4,20
 1083f50:	d90d883a 	add	r6,sp,r4
 1083f54:	01404274 	movhi	r5,265
 1083f58:	296d8004 	addi	r5,r5,-18944
 1083f5c:	10873c40 	call	10873c4 <OSTaskNameSet>
 1083f60:	00c04274 	movhi	r3,265
 1083f64:	18d87604 	addi	r3,r3,25048
 1083f68:	1981ff04 	addi	r6,r3,2044
 1083f6c:	01c004c4 	movi	r7,19
 1083f70:	01004234 	movhi	r4,264
 1083f74:	21119404 	addi	r4,r4,18000
 1083f78:	000b883a 	mov	r5,zero
 1083f7c:	00bfff94 	movui	r2,65534
 1083f80:	d8c00115 	stw	r3,4(sp)
 1083f84:	d8800015 	stw	r2,0(sp)
 1083f88:	dc000215 	stw	r16,8(sp)
 1083f8c:	dc400415 	stw	r17,16(sp)
 1083f90:	d8000315 	stw	zero,12(sp)
 1083f94:	1086e440 	call	1086e44 <OSTaskCreateExt>
 1083f98:	010004c4 	movi	r4,19
 1083f9c:	01404274 	movhi	r5,265
 1083fa0:	296d8404 	addi	r5,r5,-18928
 1083fa4:	d9800504 	addi	r6,sp,20
 1083fa8:	10873c40 	call	10873c4 <OSTaskNameSet>
 1083fac:	1087cfc0 	call	1087cfc <OSTmr_Init>
 1083fb0:	108963c0 	call	108963c <OSInitHookEnd>
 1083fb4:	10849e80 	call	10849e8 <OSDebugInit>
 1083fb8:	dfc00817 	ldw	ra,32(sp)
 1083fbc:	dc400717 	ldw	r17,28(sp)
 1083fc0:	dc000617 	ldw	r16,24(sp)
 1083fc4:	dec00904 	addi	sp,sp,36
 1083fc8:	f800283a 	ret

01083fcc <OSEventNameGet>:
 1083fcc:	defffd04 	addi	sp,sp,-12
 1083fd0:	dc400115 	stw	r17,4(sp)
 1083fd4:	3023883a 	mov	r17,r6
 1083fd8:	dfc00215 	stw	ra,8(sp)
 1083fdc:	dc000015 	stw	r16,0(sp)
 1083fe0:	200d883a 	mov	r6,r4
 1083fe4:	8800021e 	bne	r17,zero,1083ff0 <OSEventNameGet+0x24>
 1083fe8:	0007883a 	mov	r3,zero
 1083fec:	00001f06 	br	108406c <OSEventNameGet+0xa0>
 1083ff0:	2000031e 	bne	r4,zero,1084000 <OSEventNameGet+0x34>
 1083ff4:	0007883a 	mov	r3,zero
 1083ff8:	00800104 	movi	r2,4
 1083ffc:	00000306 	br	108400c <OSEventNameGet+0x40>
 1084000:	2800041e 	bne	r5,zero,1084014 <OSEventNameGet+0x48>
 1084004:	0007883a 	mov	r3,zero
 1084008:	00800304 	movi	r2,12
 108400c:	88800005 	stb	r2,0(r17)
 1084010:	00001606 	br	108406c <OSEventNameGet+0xa0>
 1084014:	d0a70203 	ldbu	r2,-25592(gp)
 1084018:	10000326 	beq	r2,zero,1084028 <OSEventNameGet+0x5c>
 108401c:	0007883a 	mov	r3,zero
 1084020:	00800444 	movi	r2,17
 1084024:	003ff906 	br	108400c <OSEventNameGet+0x40>
 1084028:	20800003 	ldbu	r2,0(r4)
 108402c:	00c000c4 	movi	r3,3
 1084030:	10bfffc4 	addi	r2,r2,-1
 1084034:	1880032e 	bgeu	r3,r2,1084044 <OSEventNameGet+0x78>
 1084038:	0007883a 	mov	r3,zero
 108403c:	00800044 	movi	r2,1
 1084040:	003ff206 	br	108400c <OSEventNameGet+0x40>
 1084044:	0021303a 	rdctl	r16,status
 1084048:	00bfff84 	movi	r2,-2
 108404c:	8084703a 	and	r2,r16,r2
 1084050:	1001703a 	wrctl	status,r2
 1084054:	2809883a 	mov	r4,r5
 1084058:	31400384 	addi	r5,r6,14
 108405c:	1083bf80 	call	1083bf8 <OS_StrCopy>
 1084060:	8001703a 	wrctl	status,r16
 1084064:	88000005 	stb	zero,0(r17)
 1084068:	10c03fcc 	andi	r3,r2,255
 108406c:	1805883a 	mov	r2,r3
 1084070:	dfc00217 	ldw	ra,8(sp)
 1084074:	dc400117 	ldw	r17,4(sp)
 1084078:	dc000017 	ldw	r16,0(sp)
 108407c:	dec00304 	addi	sp,sp,12
 1084080:	f800283a 	ret

01084084 <OSEventPendMulti>:
 1084084:	defff704 	addi	sp,sp,-36
 1084088:	dd400515 	stw	r21,20(sp)
 108408c:	dd400917 	ldw	r21,36(sp)
 1084090:	dcc00315 	stw	r19,12(sp)
 1084094:	dc800215 	stw	r18,8(sp)
 1084098:	dc400115 	stw	r17,4(sp)
 108409c:	dfc00815 	stw	ra,32(sp)
 10840a0:	ddc00715 	stw	r23,28(sp)
 10840a4:	dd800615 	stw	r22,24(sp)
 10840a8:	dd000415 	stw	r20,16(sp)
 10840ac:	dc000015 	stw	r16,0(sp)
 10840b0:	2027883a 	mov	r19,r4
 10840b4:	2823883a 	mov	r17,r5
 10840b8:	3025883a 	mov	r18,r6
 10840bc:	a800021e 	bne	r21,zero,10840c8 <OSEventPendMulti+0x44>
 10840c0:	0007883a 	mov	r3,zero
 10840c4:	0000b906 	br	10843ac <OSEventPendMulti+0x328>
 10840c8:	20000226 	beq	r4,zero,10840d4 <OSEventPendMulti+0x50>
 10840cc:	28000126 	beq	r5,zero,10840d4 <OSEventPendMulti+0x50>
 10840d0:	3000031e 	bne	r6,zero,10840e0 <OSEventPendMulti+0x5c>
 10840d4:	0007883a 	mov	r3,zero
 10840d8:	00800104 	movi	r2,4
 10840dc:	0000a406 	br	1084370 <OSEventPendMulti+0x2ec>
 10840e0:	28000015 	stw	zero,0(r5)
 10840e4:	20800017 	ldw	r2,0(r4)
 10840e8:	2007883a 	mov	r3,r4
 10840ec:	01000084 	movi	r4,2
 10840f0:	00000406 	br	1084104 <OSEventPendMulti+0x80>
 10840f4:	10800003 	ldbu	r2,0(r2)
 10840f8:	10bfffc4 	addi	r2,r2,-1
 10840fc:	20809a36 	bltu	r4,r2,1084368 <OSEventPendMulti+0x2e4>
 1084100:	18800017 	ldw	r2,0(r3)
 1084104:	18c00104 	addi	r3,r3,4
 1084108:	103ffa1e 	bne	r2,zero,10840f4 <OSEventPendMulti+0x70>
 108410c:	d0a70203 	ldbu	r2,-25592(gp)
 1084110:	10000326 	beq	r2,zero,1084120 <OSEventPendMulti+0x9c>
 1084114:	0007883a 	mov	r3,zero
 1084118:	00800084 	movi	r2,2
 108411c:	00009406 	br	1084370 <OSEventPendMulti+0x2ec>
 1084120:	d0a6f103 	ldbu	r2,-25660(gp)
 1084124:	10000326 	beq	r2,zero,1084134 <OSEventPendMulti+0xb0>
 1084128:	0007883a 	mov	r3,zero
 108412c:	00800344 	movi	r2,13
 1084130:	00008f06 	br	1084370 <OSEventPendMulti+0x2ec>
 1084134:	002d303a 	rdctl	r22,status
 1084138:	00bfff84 	movi	r2,-2
 108413c:	b084703a 	and	r2,r22,r2
 1084140:	1001703a 	wrctl	status,r2
 1084144:	9c000017 	ldw	r16,0(r19)
 1084148:	9811883a 	mov	r8,r19
 108414c:	0009883a 	mov	r4,zero
 1084150:	0029883a 	mov	r20,zero
 1084154:	000d883a 	mov	r6,zero
 1084158:	00003e06 	br	1084254 <OSEventPendMulti+0x1d0>
 108415c:	80c00003 	ldbu	r3,0(r16)
 1084160:	00800084 	movi	r2,2
 1084164:	18801e26 	beq	r3,r2,10841e0 <OSEventPendMulti+0x15c>
 1084168:	008000c4 	movi	r2,3
 108416c:	18800326 	beq	r3,r2,108417c <OSEventPendMulti+0xf8>
 1084170:	00800044 	movi	r2,1
 1084174:	1880311e 	bne	r3,r2,108423c <OSEventPendMulti+0x1b8>
 1084178:	00000d06 	br	10841b0 <OSEventPendMulti+0x12c>
 108417c:	8080020b 	ldhu	r2,8(r16)
 1084180:	10000926 	beq	r2,zero,10841a8 <OSEventPendMulti+0x124>
 1084184:	8c000015 	stw	r16,0(r17)
 1084188:	10bfffc4 	addi	r2,r2,-1
 108418c:	90000015 	stw	zero,0(r18)
 1084190:	8c400104 	addi	r17,r17,4
 1084194:	94800104 	addi	r18,r18,4
 1084198:	a5000044 	addi	r20,r20,1
 108419c:	01000044 	movi	r4,1
 10841a0:	8080020d 	sth	r2,8(r16)
 10841a4:	00002906 	br	108424c <OSEventPendMulti+0x1c8>
 10841a8:	31800054 	ori	r6,r6,1
 10841ac:	00002706 	br	108424c <OSEventPendMulti+0x1c8>
 10841b0:	80800117 	ldw	r2,4(r16)
 10841b4:	10000826 	beq	r2,zero,10841d8 <OSEventPendMulti+0x154>
 10841b8:	90800015 	stw	r2,0(r18)
 10841bc:	8c000015 	stw	r16,0(r17)
 10841c0:	94800104 	addi	r18,r18,4
 10841c4:	8c400104 	addi	r17,r17,4
 10841c8:	1d29883a 	add	r20,r3,r20
 10841cc:	01000044 	movi	r4,1
 10841d0:	80000115 	stw	zero,4(r16)
 10841d4:	00001d06 	br	108424c <OSEventPendMulti+0x1c8>
 10841d8:	31800094 	ori	r6,r6,2
 10841dc:	00001b06 	br	108424c <OSEventPendMulti+0x1c8>
 10841e0:	81400117 	ldw	r5,4(r16)
 10841e4:	2880058b 	ldhu	r2,22(r5)
 10841e8:	10001226 	beq	r2,zero,1084234 <OSEventPendMulti+0x1b0>
 10841ec:	28800417 	ldw	r2,16(r5)
 10841f0:	29000217 	ldw	r4,8(r5)
 10841f4:	10c00017 	ldw	r3,0(r2)
 10841f8:	10800104 	addi	r2,r2,4
 10841fc:	28800415 	stw	r2,16(r5)
 1084200:	90c00015 	stw	r3,0(r18)
 1084204:	1100021e 	bne	r2,r4,1084210 <OSEventPendMulti+0x18c>
 1084208:	28800117 	ldw	r2,4(r5)
 108420c:	28800415 	stw	r2,16(r5)
 1084210:	2880058b 	ldhu	r2,22(r5)
 1084214:	8c000015 	stw	r16,0(r17)
 1084218:	94800104 	addi	r18,r18,4
 108421c:	10bfffc4 	addi	r2,r2,-1
 1084220:	8c400104 	addi	r17,r17,4
 1084224:	a5000044 	addi	r20,r20,1
 1084228:	01000044 	movi	r4,1
 108422c:	2880058d 	sth	r2,22(r5)
 1084230:	00000606 	br	108424c <OSEventPendMulti+0x1c8>
 1084234:	31800114 	ori	r6,r6,4
 1084238:	00000406 	br	108424c <OSEventPendMulti+0x1c8>
 108423c:	b001703a 	wrctl	status,r22
 1084240:	a0ffffcc 	andi	r3,r20,65535
 1084244:	88000015 	stw	zero,0(r17)
 1084248:	00004906 	br	1084370 <OSEventPendMulti+0x2ec>
 108424c:	42000104 	addi	r8,r8,4
 1084250:	44000017 	ldw	r16,0(r8)
 1084254:	803fc11e 	bne	r16,zero,108415c <OSEventPendMulti+0xd8>
 1084258:	20803fcc 	andi	r2,r4,255
 108425c:	05c00044 	movi	r23,1
 1084260:	15c0051e 	bne	r2,r23,1084278 <OSEventPendMulti+0x1f4>
 1084264:	88000015 	stw	zero,0(r17)
 1084268:	b001703a 	wrctl	status,r22
 108426c:	a0ffffcc 	andi	r3,r20,65535
 1084270:	a8000005 	stb	zero,0(r21)
 1084274:	00004d06 	br	10843ac <OSEventPendMulti+0x328>
 1084278:	d1670317 	ldw	r5,-25588(gp)
 108427c:	00ffe004 	movi	r3,-128
 1084280:	9809883a 	mov	r4,r19
 1084284:	28800c03 	ldbu	r2,48(r5)
 1084288:	10c4b03a 	or	r2,r2,r3
 108428c:	1184b03a 	or	r2,r2,r6
 1084290:	28800c05 	stb	r2,48(r5)
 1084294:	d0a70317 	ldw	r2,-25588(gp)
 1084298:	10000c45 	stb	zero,49(r2)
 108429c:	d0a70317 	ldw	r2,-25588(gp)
 10842a0:	11c00b8d 	sth	r7,46(r2)
 10842a4:	10839600 	call	1083960 <OS_EventTaskWaitMulti>
 10842a8:	b001703a 	wrctl	status,r22
 10842ac:	1083cc80 	call	1083cc8 <OS_Sched>
 10842b0:	002d303a 	rdctl	r22,status
 10842b4:	00bfff84 	movi	r2,-2
 10842b8:	b084703a 	and	r2,r22,r2
 10842bc:	1001703a 	wrctl	status,r2
 10842c0:	d1270317 	ldw	r4,-25588(gp)
 10842c4:	20c00c43 	ldbu	r3,49(r4)
 10842c8:	18000226 	beq	r3,zero,10842d4 <OSEventPendMulti+0x250>
 10842cc:	00800084 	movi	r2,2
 10842d0:	1880091e 	bne	r3,r2,10842f8 <OSEventPendMulti+0x274>
 10842d4:	24000717 	ldw	r16,28(r4)
 10842d8:	80000526 	beq	r16,zero,10842f0 <OSEventPendMulti+0x26c>
 10842dc:	8c000015 	stw	r16,0(r17)
 10842e0:	a5000044 	addi	r20,r20,1
 10842e4:	8c400104 	addi	r17,r17,4
 10842e8:	88000015 	stw	zero,0(r17)
 10842ec:	00000406 	br	1084300 <OSEventPendMulti+0x27c>
 10842f0:	25c00c45 	stb	r23,49(r4)
 10842f4:	d1270317 	ldw	r4,-25588(gp)
 10842f8:	980b883a 	mov	r5,r19
 10842fc:	1083a4c0 	call	1083a4c <OS_EventTaskRemoveMulti>
 1084300:	d1270317 	ldw	r4,-25588(gp)
 1084304:	20c00c43 	ldbu	r3,49(r4)
 1084308:	18000326 	beq	r3,zero,1084318 <OSEventPendMulti+0x294>
 108430c:	00800084 	movi	r2,2
 1084310:	1880191e 	bne	r3,r2,1084378 <OSEventPendMulti+0x2f4>
 1084314:	00001106 	br	108435c <OSEventPendMulti+0x2d8>
 1084318:	80c00003 	ldbu	r3,0(r16)
 108431c:	18000926 	beq	r3,zero,1084344 <OSEventPendMulti+0x2c0>
 1084320:	00800084 	movi	r2,2
 1084324:	10c0042e 	bgeu	r2,r3,1084338 <OSEventPendMulti+0x2b4>
 1084328:	008000c4 	movi	r2,3
 108432c:	1880051e 	bne	r3,r2,1084344 <OSEventPendMulti+0x2c0>
 1084330:	90000015 	stw	zero,0(r18)
 1084334:	00000706 	br	1084354 <OSEventPendMulti+0x2d0>
 1084338:	20800917 	ldw	r2,36(r4)
 108433c:	90800015 	stw	r2,0(r18)
 1084340:	00000406 	br	1084354 <OSEventPendMulti+0x2d0>
 1084344:	b001703a 	wrctl	status,r22
 1084348:	a0ffffcc 	andi	r3,r20,65535
 108434c:	88000015 	stw	zero,0(r17)
 1084350:	00000606 	br	108436c <OSEventPendMulti+0x2e8>
 1084354:	a8000005 	stb	zero,0(r21)
 1084358:	00000a06 	br	1084384 <OSEventPendMulti+0x300>
 108435c:	00800384 	movi	r2,14
 1084360:	90000015 	stw	zero,0(r18)
 1084364:	00000606 	br	1084380 <OSEventPendMulti+0x2fc>
 1084368:	0007883a 	mov	r3,zero
 108436c:	00800044 	movi	r2,1
 1084370:	a8800005 	stb	r2,0(r21)
 1084374:	00000d06 	br	10843ac <OSEventPendMulti+0x328>
 1084378:	90000015 	stw	zero,0(r18)
 108437c:	00800284 	movi	r2,10
 1084380:	a8800005 	stb	r2,0(r21)
 1084384:	d0a70317 	ldw	r2,-25588(gp)
 1084388:	10000c05 	stb	zero,48(r2)
 108438c:	d0a70317 	ldw	r2,-25588(gp)
 1084390:	10000c45 	stb	zero,49(r2)
 1084394:	d0a70317 	ldw	r2,-25588(gp)
 1084398:	10000915 	stw	zero,36(r2)
 108439c:	10000715 	stw	zero,28(r2)
 10843a0:	10000815 	stw	zero,32(r2)
 10843a4:	b001703a 	wrctl	status,r22
 10843a8:	a0ffffcc 	andi	r3,r20,65535
 10843ac:	1805883a 	mov	r2,r3
 10843b0:	dfc00817 	ldw	ra,32(sp)
 10843b4:	ddc00717 	ldw	r23,28(sp)
 10843b8:	dd800617 	ldw	r22,24(sp)
 10843bc:	dd400517 	ldw	r21,20(sp)
 10843c0:	dd000417 	ldw	r20,16(sp)
 10843c4:	dcc00317 	ldw	r19,12(sp)
 10843c8:	dc800217 	ldw	r18,8(sp)
 10843cc:	dc400117 	ldw	r17,4(sp)
 10843d0:	dc000017 	ldw	r16,0(sp)
 10843d4:	dec00904 	addi	sp,sp,36
 10843d8:	f800283a 	ret

010843dc <OSIntEnter>:
 10843dc:	d0e6f303 	ldbu	r3,-25652(gp)
 10843e0:	00800044 	movi	r2,1
 10843e4:	18800b1e 	bne	r3,r2,1084414 <OSIntEnter+0x38>
 10843e8:	000b303a 	rdctl	r5,status
 10843ec:	00bfff84 	movi	r2,-2
 10843f0:	2884703a 	and	r2,r5,r2
 10843f4:	1001703a 	wrctl	status,r2
 10843f8:	d0a70203 	ldbu	r2,-25592(gp)
 10843fc:	10c9883a 	add	r4,r2,r3
 1084400:	10803fcc 	andi	r2,r2,255
 1084404:	00c03fc4 	movi	r3,255
 1084408:	10c00126 	beq	r2,r3,1084410 <OSIntEnter+0x34>
 108440c:	d1270205 	stb	r4,-25592(gp)
 1084410:	2801703a 	wrctl	status,r5
 1084414:	f800283a 	ret

01084418 <OSSchedLock>:
 1084418:	d0e6f303 	ldbu	r3,-25652(gp)
 108441c:	00800044 	movi	r2,1
 1084420:	18800d1e 	bne	r3,r2,1084458 <OSSchedLock+0x40>
 1084424:	000b303a 	rdctl	r5,status
 1084428:	00bfff84 	movi	r2,-2
 108442c:	2884703a 	and	r2,r5,r2
 1084430:	1001703a 	wrctl	status,r2
 1084434:	d0a70203 	ldbu	r2,-25592(gp)
 1084438:	1000061e 	bne	r2,zero,1084454 <OSSchedLock+0x3c>
 108443c:	d0a6f103 	ldbu	r2,-25660(gp)
 1084440:	10c9883a 	add	r4,r2,r3
 1084444:	10803fcc 	andi	r2,r2,255
 1084448:	00c03fc4 	movi	r3,255
 108444c:	10c00126 	beq	r2,r3,1084454 <OSSchedLock+0x3c>
 1084450:	d126f105 	stb	r4,-25660(gp)
 1084454:	2801703a 	wrctl	status,r5
 1084458:	f800283a 	ret

0108445c <OSSchedUnlock>:
 108445c:	d0e6f303 	ldbu	r3,-25652(gp)
 1084460:	00800044 	movi	r2,1
 1084464:	1880111e 	bne	r3,r2,10844ac <OSSchedUnlock+0x50>
 1084468:	000b303a 	rdctl	r5,status
 108446c:	00bfff84 	movi	r2,-2
 1084470:	2884703a 	and	r2,r5,r2
 1084474:	1001703a 	wrctl	status,r2
 1084478:	d0a6f103 	ldbu	r2,-25660(gp)
 108447c:	10ffffc4 	addi	r3,r2,-1
 1084480:	19003fcc 	andi	r4,r3,255
 1084484:	10000826 	beq	r2,zero,10844a8 <OSSchedUnlock+0x4c>
 1084488:	d0e6f105 	stb	r3,-25660(gp)
 108448c:	2000041e 	bne	r4,zero,10844a0 <OSSchedUnlock+0x44>
 1084490:	d0a70203 	ldbu	r2,-25592(gp)
 1084494:	1000021e 	bne	r2,zero,10844a0 <OSSchedUnlock+0x44>
 1084498:	2801703a 	wrctl	status,r5
 108449c:	1083cc81 	jmpi	1083cc8 <OS_Sched>
 10844a0:	2801703a 	wrctl	status,r5
 10844a4:	f800283a 	ret
 10844a8:	2801703a 	wrctl	status,r5
 10844ac:	f800283a 	ret

010844b0 <OSStatInit>:
 10844b0:	defffe04 	addi	sp,sp,-8
 10844b4:	01000084 	movi	r4,2
 10844b8:	dfc00115 	stw	ra,4(sp)
 10844bc:	dc000015 	stw	r16,0(sp)
 10844c0:	108783c0 	call	108783c <OSTimeDly>
 10844c4:	0007303a 	rdctl	r3,status
 10844c8:	043fff84 	movi	r16,-2
 10844cc:	1c04703a 	and	r2,r3,r16
 10844d0:	1001703a 	wrctl	status,r2
 10844d4:	d026f415 	stw	zero,-25648(gp)
 10844d8:	1801703a 	wrctl	status,r3
 10844dc:	01001904 	movi	r4,100
 10844e0:	108783c0 	call	108783c <OSTimeDly>
 10844e4:	0009303a 	rdctl	r4,status
 10844e8:	2420703a 	and	r16,r4,r16
 10844ec:	8001703a 	wrctl	status,r16
 10844f0:	d0e6f417 	ldw	r3,-25648(gp)
 10844f4:	00800044 	movi	r2,1
 10844f8:	d0a70805 	stb	r2,-25568(gp)
 10844fc:	d0e6fa15 	stw	r3,-25624(gp)
 1084500:	2001703a 	wrctl	status,r4
 1084504:	dfc00117 	ldw	ra,4(sp)
 1084508:	dc000017 	ldw	r16,0(sp)
 108450c:	dec00204 	addi	sp,sp,8
 1084510:	f800283a 	ret

01084514 <OSTimeTick>:
 1084514:	deffff04 	addi	sp,sp,-4
 1084518:	dfc00015 	stw	ra,0(sp)
 108451c:	10896480 	call	1089648 <OSTimeTickHook>
 1084520:	0007303a 	rdctl	r3,status
 1084524:	00bfff84 	movi	r2,-2
 1084528:	1884703a 	and	r2,r3,r2
 108452c:	1001703a 	wrctl	status,r2
 1084530:	d0a70517 	ldw	r2,-25580(gp)
 1084534:	10800044 	addi	r2,r2,1
 1084538:	d0a70515 	stw	r2,-25580(gp)
 108453c:	1801703a 	wrctl	status,r3
 1084540:	d126f303 	ldbu	r4,-25652(gp)
 1084544:	00800044 	movi	r2,1
 1084548:	2080321e 	bne	r4,r2,1084614 <OSTimeTick+0x100>
 108454c:	d0e6f703 	ldbu	r3,-25636(gp)
 1084550:	19003026 	beq	r3,r4,1084614 <OSTimeTick+0x100>
 1084554:	19002d36 	bltu	r3,r4,108460c <OSTimeTick+0xf8>
 1084558:	00800084 	movi	r2,2
 108455c:	1880021e 	bne	r3,r2,1084568 <OSTimeTick+0x54>
 1084560:	d126f705 	stb	r4,-25636(gp)
 1084564:	00002906 	br	108460c <OSTimeTick+0xf8>
 1084568:	d026f705 	stb	zero,-25636(gp)
 108456c:	00002706 	br	108460c <OSTimeTick+0xf8>
 1084570:	000d303a 	rdctl	r6,status
 1084574:	00bfff84 	movi	r2,-2
 1084578:	3084703a 	and	r2,r6,r2
 108457c:	1001703a 	wrctl	status,r2
 1084580:	28800b8b 	ldhu	r2,46(r5)
 1084584:	10ffffc4 	addi	r3,r2,-1
 1084588:	193fffcc 	andi	r4,r3,65535
 108458c:	10001926 	beq	r2,zero,10845f4 <OSTimeTick+0xe0>
 1084590:	28c00b8d 	sth	r3,46(r5)
 1084594:	2000171e 	bne	r4,zero,10845f4 <OSTimeTick+0xe0>
 1084598:	28800c03 	ldbu	r2,48(r5)
 108459c:	10c0320c 	andi	r3,r2,200
 10845a0:	10800dcc 	andi	r2,r2,55
 10845a4:	10000426 	beq	r2,zero,10845b8 <OSTimeTick+0xa4>
 10845a8:	00800044 	movi	r2,1
 10845ac:	28c00c05 	stb	r3,48(r5)
 10845b0:	28800c45 	stb	r2,49(r5)
 10845b4:	00000106 	br	10845bc <OSTimeTick+0xa8>
 10845b8:	28000c45 	stb	zero,49(r5)
 10845bc:	28800c03 	ldbu	r2,48(r5)
 10845c0:	1080020c 	andi	r2,r2,8
 10845c4:	10000b1e 	bne	r2,zero,10845f4 <OSTimeTick+0xe0>
 10845c8:	28c00d83 	ldbu	r3,54(r5)
 10845cc:	d0a70003 	ldbu	r2,-25600(gp)
 10845d0:	10c4b03a 	or	r2,r2,r3
 10845d4:	d0a70005 	stb	r2,-25600(gp)
 10845d8:	28c00d03 	ldbu	r3,52(r5)
 10845dc:	d0a70044 	addi	r2,gp,-25599
 10845e0:	29000d43 	ldbu	r4,53(r5)
 10845e4:	1887883a 	add	r3,r3,r2
 10845e8:	18800003 	ldbu	r2,0(r3)
 10845ec:	1104b03a 	or	r2,r2,r4
 10845f0:	18800005 	stb	r2,0(r3)
 10845f4:	29400517 	ldw	r5,20(r5)
 10845f8:	3001703a 	wrctl	status,r6
 10845fc:	28c00c83 	ldbu	r3,50(r5)
 1084600:	00800504 	movi	r2,20
 1084604:	18bfda1e 	bne	r3,r2,1084570 <OSTimeTick+0x5c>
 1084608:	00000206 	br	1084614 <OSTimeTick+0x100>
 108460c:	d166f617 	ldw	r5,-25640(gp)
 1084610:	003ffa06 	br	10845fc <OSTimeTick+0xe8>
 1084614:	dfc00017 	ldw	ra,0(sp)
 1084618:	dec00104 	addi	sp,sp,4
 108461c:	f800283a 	ret

01084620 <OS_TaskIdle>:
 1084620:	deffff04 	addi	sp,sp,-4
 1084624:	dfc00015 	stw	ra,0(sp)
 1084628:	0005303a 	rdctl	r2,status
 108462c:	00ffff84 	movi	r3,-2
 1084630:	10c6703a 	and	r3,r2,r3
 1084634:	1801703a 	wrctl	status,r3
 1084638:	d0e6f417 	ldw	r3,-25648(gp)
 108463c:	18c00044 	addi	r3,r3,1
 1084640:	d0e6f415 	stw	r3,-25648(gp)
 1084644:	1001703a 	wrctl	status,r2
 1084648:	10896400 	call	1089640 <OSTaskIdleHook>
 108464c:	003ff606 	br	1084628 <OS_TaskIdle+0x8>

01084650 <OS_TaskStat>:
 1084650:	deffff04 	addi	sp,sp,-4
 1084654:	dfc00015 	stw	ra,0(sp)
 1084658:	00000106 	br	1084660 <OS_TaskStat+0x10>
 108465c:	108783c0 	call	108783c <OSTimeDly>
 1084660:	d0a70803 	ldbu	r2,-25568(gp)
 1084664:	01003204 	movi	r4,200
 1084668:	103ffc26 	beq	r2,zero,108465c <OS_TaskStat+0xc>
 108466c:	d126fa17 	ldw	r4,-25624(gp)
 1084670:	01401904 	movi	r5,100
 1084674:	108ae900 	call	108ae90 <__udivsi3>
 1084678:	d0a6fa15 	stw	r2,-25624(gp)
 108467c:	1000031e 	bne	r2,zero,108468c <OS_TaskStat+0x3c>
 1084680:	01003fc4 	movi	r4,255
 1084684:	d026fc05 	stb	zero,-25616(gp)
 1084688:	10876d40 	call	10876d4 <OSTaskSuspend>
 108468c:	0007303a 	rdctl	r3,status
 1084690:	00bfff84 	movi	r2,-2
 1084694:	1884703a 	and	r2,r3,r2
 1084698:	1001703a 	wrctl	status,r2
 108469c:	d126f417 	ldw	r4,-25648(gp)
 10846a0:	d026f415 	stw	zero,-25648(gp)
 10846a4:	d1270915 	stw	r4,-25564(gp)
 10846a8:	1801703a 	wrctl	status,r3
 10846ac:	d166fa17 	ldw	r5,-25624(gp)
 10846b0:	108ae900 	call	108ae90 <__udivsi3>
 10846b4:	00c01904 	movi	r3,100
 10846b8:	1887c83a 	sub	r3,r3,r2
 10846bc:	d0e6fc05 	stb	r3,-25616(gp)
 10846c0:	10896300 	call	1089630 <OSTaskStatHook>
 10846c4:	1083c440 	call	1083c44 <OS_TaskStatStkChk>
 10846c8:	01001904 	movi	r4,100
 10846cc:	108783c0 	call	108783c <OSTimeDly>
 10846d0:	003fee06 	br	108468c <OS_TaskStat+0x3c>

010846d4 <OS_TCBInit>:
 10846d4:	defffc04 	addi	sp,sp,-16
 10846d8:	da400617 	ldw	r9,24(sp)
 10846dc:	2011883a 	mov	r8,r4
 10846e0:	dfc00315 	stw	ra,12(sp)
 10846e4:	dc800215 	stw	r18,8(sp)
 10846e8:	dc400115 	stw	r17,4(sp)
 10846ec:	dc000015 	stw	r16,0(sp)
 10846f0:	0007303a 	rdctl	r3,status
 10846f4:	04bfff84 	movi	r18,-2
 10846f8:	1c84703a 	and	r2,r3,r18
 10846fc:	1001703a 	wrctl	status,r2
 1084700:	d466fb17 	ldw	r17,-25620(gp)
 1084704:	88004c26 	beq	r17,zero,1084838 <OS_TCBInit+0x164>
 1084708:	88800517 	ldw	r2,20(r17)
 108470c:	d0a6fb15 	stw	r2,-25620(gp)
 1084710:	1801703a 	wrctl	status,r3
 1084714:	24003fcc 	andi	r16,r4,255
 1084718:	8006d0fa 	srli	r3,r16,3
 108471c:	208001cc 	andi	r2,r4,7
 1084720:	88800cc5 	stb	r2,51(r17)
 1084724:	88c00d05 	stb	r3,52(r17)
 1084728:	19003fcc 	andi	r4,r3,255
 108472c:	10803fcc 	andi	r2,r2,255
 1084730:	00c00044 	movi	r3,1
 1084734:	1908983a 	sll	r4,r3,r4
 1084738:	1886983a 	sll	r3,r3,r2
 108473c:	d8800517 	ldw	r2,20(sp)
 1084740:	89400015 	stw	r5,0(r17)
 1084744:	89800215 	stw	r6,8(r17)
 1084748:	88800115 	stw	r2,4(r17)
 108474c:	d8800417 	ldw	r2,16(sp)
 1084750:	8a40040d 	sth	r9,16(r17)
 1084754:	89c0048d 	sth	r7,18(r17)
 1084758:	88800315 	stw	r2,12(r17)
 108475c:	00800fc4 	movi	r2,63
 1084760:	89000d85 	stb	r4,54(r17)
 1084764:	88c00d45 	stb	r3,53(r17)
 1084768:	88801305 	stb	r2,76(r17)
 108476c:	8a000c85 	stb	r8,50(r17)
 1084770:	8809883a 	mov	r4,r17
 1084774:	88000c05 	stb	zero,48(r17)
 1084778:	88000c45 	stb	zero,49(r17)
 108477c:	88000b8d 	sth	zero,46(r17)
 1084780:	88000dc5 	stb	zero,55(r17)
 1084784:	88000715 	stw	zero,28(r17)
 1084788:	88000815 	stw	zero,32(r17)
 108478c:	88000a15 	stw	zero,40(r17)
 1084790:	88000915 	stw	zero,36(r17)
 1084794:	88000e15 	stw	zero,56(r17)
 1084798:	88001015 	stw	zero,64(r17)
 108479c:	88000f15 	stw	zero,60(r17)
 10847a0:	88001115 	stw	zero,68(r17)
 10847a4:	88001215 	stw	zero,72(r17)
 10847a8:	88001345 	stb	zero,77(r17)
 10847ac:	10896440 	call	1089644 <OSTCBInitHook>
 10847b0:	8809883a 	mov	r4,r17
 10847b4:	10896240 	call	1089624 <OSTaskCreateHook>
 10847b8:	000d303a 	rdctl	r6,status
 10847bc:	3484703a 	and	r2,r6,r18
 10847c0:	1001703a 	wrctl	status,r2
 10847c4:	d0a6fc43 	ldbu	r2,-25615(gp)
 10847c8:	8421883a 	add	r16,r16,r16
 10847cc:	d0e6f617 	ldw	r3,-25640(gp)
 10847d0:	8421883a 	add	r16,r16,r16
 10847d4:	11400044 	addi	r5,r2,1
 10847d8:	008042b4 	movhi	r2,266
 10847dc:	10a30204 	addi	r2,r2,-29688
 10847e0:	80a1883a 	add	r16,r16,r2
 10847e4:	84400015 	stw	r17,0(r16)
 10847e8:	d1270003 	ldbu	r4,-25600(gp)
 10847ec:	88000615 	stw	zero,24(r17)
 10847f0:	88c00515 	stw	r3,20(r17)
 10847f4:	18000126 	beq	r3,zero,10847fc <OS_TCBInit+0x128>
 10847f8:	1c400615 	stw	r17,24(r3)
 10847fc:	88800d83 	ldbu	r2,54(r17)
 1084800:	d466f615 	stw	r17,-25640(gp)
 1084804:	2084b03a 	or	r2,r4,r2
 1084808:	d0a70005 	stb	r2,-25600(gp)
 108480c:	88c00d03 	ldbu	r3,52(r17)
 1084810:	d0a70044 	addi	r2,gp,-25599
 1084814:	89000d43 	ldbu	r4,53(r17)
 1084818:	1887883a 	add	r3,r3,r2
 108481c:	18800003 	ldbu	r2,0(r3)
 1084820:	d166fc45 	stb	r5,-25615(gp)
 1084824:	1104b03a 	or	r2,r2,r4
 1084828:	18800005 	stb	r2,0(r3)
 108482c:	3001703a 	wrctl	status,r6
 1084830:	0005883a 	mov	r2,zero
 1084834:	00000206 	br	1084840 <OS_TCBInit+0x16c>
 1084838:	1801703a 	wrctl	status,r3
 108483c:	00801084 	movi	r2,66
 1084840:	dfc00317 	ldw	ra,12(sp)
 1084844:	dc800217 	ldw	r18,8(sp)
 1084848:	dc400117 	ldw	r17,4(sp)
 108484c:	dc000017 	ldw	r16,0(sp)
 1084850:	dec00404 	addi	sp,sp,16
 1084854:	f800283a 	ret

01084858 <OSIntExit>:
 1084858:	d1e6f303 	ldbu	r7,-25652(gp)
 108485c:	defffe04 	addi	sp,sp,-8
 1084860:	00800044 	movi	r2,1
 1084864:	dfc00115 	stw	ra,4(sp)
 1084868:	dc000015 	stw	r16,0(sp)
 108486c:	38802b1e 	bne	r7,r2,108491c <OSIntExit+0xc4>
 1084870:	0021303a 	rdctl	r16,status
 1084874:	00bfff84 	movi	r2,-2
 1084878:	8084703a 	and	r2,r16,r2
 108487c:	1001703a 	wrctl	status,r2
 1084880:	d0a70203 	ldbu	r2,-25592(gp)
 1084884:	10ffffc4 	addi	r3,r2,-1
 1084888:	19003fcc 	andi	r4,r3,255
 108488c:	10000226 	beq	r2,zero,1084898 <OSIntExit+0x40>
 1084890:	d0e70205 	stb	r3,-25592(gp)
 1084894:	2000201e 	bne	r4,zero,1084918 <OSIntExit+0xc0>
 1084898:	d0a6f103 	ldbu	r2,-25660(gp)
 108489c:	01404274 	movhi	r5,265
 10848a0:	296d8784 	addi	r5,r5,-18914
 10848a4:	10001c1e 	bne	r2,zero,1084918 <OSIntExit+0xc0>
 10848a8:	d0a70003 	ldbu	r2,-25600(gp)
 10848ac:	d0e70044 	addi	r3,gp,-25599
 10848b0:	d1a6f5c3 	ldbu	r6,-25641(gp)
 10848b4:	1145883a 	add	r2,r2,r5
 10848b8:	11000003 	ldbu	r4,0(r2)
 10848bc:	20c5883a 	add	r2,r4,r3
 10848c0:	10800003 	ldbu	r2,0(r2)
 10848c4:	200890fa 	slli	r4,r4,3
 10848c8:	00c042b4 	movhi	r3,266
 10848cc:	18e30204 	addi	r3,r3,-29688
 10848d0:	1145883a 	add	r2,r2,r5
 10848d4:	10800003 	ldbu	r2,0(r2)
 10848d8:	2089883a 	add	r4,r4,r2
 10848dc:	21403fcc 	andi	r5,r4,255
 10848e0:	2945883a 	add	r2,r5,r5
 10848e4:	1085883a 	add	r2,r2,r2
 10848e8:	10c5883a 	add	r2,r2,r3
 10848ec:	d126f585 	stb	r4,-25642(gp)
 10848f0:	29800926 	beq	r5,r6,1084918 <OSIntExit+0xc0>
 10848f4:	10800017 	ldw	r2,0(r2)
 10848f8:	d126f817 	ldw	r4,-25632(gp)
 10848fc:	10c00e17 	ldw	r3,56(r2)
 1084900:	21c9883a 	add	r4,r4,r7
 1084904:	d0a6fe15 	stw	r2,-25608(gp)
 1084908:	19c7883a 	add	r3,r3,r7
 108490c:	10c00e15 	stw	r3,56(r2)
 1084910:	d126f815 	stw	r4,-25632(gp)
 1084914:	10895540 	call	1089554 <OSCtxSw>
 1084918:	8001703a 	wrctl	status,r16
 108491c:	dfc00117 	ldw	ra,4(sp)
 1084920:	dc000017 	ldw	r16,0(sp)
 1084924:	dec00204 	addi	sp,sp,8
 1084928:	f800283a 	ret

0108492c <OSEventNameSet>:
 108492c:	defffd04 	addi	sp,sp,-12
 1084930:	dfc00215 	stw	ra,8(sp)
 1084934:	dc000115 	stw	r16,4(sp)
 1084938:	30002726 	beq	r6,zero,10849d8 <OSEventNameSet+0xac>
 108493c:	2000021e 	bne	r4,zero,1084948 <OSEventNameSet+0x1c>
 1084940:	00800104 	movi	r2,4
 1084944:	00000206 	br	1084950 <OSEventNameSet+0x24>
 1084948:	2800031e 	bne	r5,zero,1084958 <OSEventNameSet+0x2c>
 108494c:	00800304 	movi	r2,12
 1084950:	30800005 	stb	r2,0(r6)
 1084954:	00002006 	br	10849d8 <OSEventNameSet+0xac>
 1084958:	d0a70203 	ldbu	r2,-25592(gp)
 108495c:	10000226 	beq	r2,zero,1084968 <OSEventNameSet+0x3c>
 1084960:	00800484 	movi	r2,18
 1084964:	003ffa06 	br	1084950 <OSEventNameSet+0x24>
 1084968:	20800003 	ldbu	r2,0(r4)
 108496c:	00c000c4 	movi	r3,3
 1084970:	10bfffc4 	addi	r2,r2,-1
 1084974:	1880022e 	bgeu	r3,r2,1084980 <OSEventNameSet+0x54>
 1084978:	00800044 	movi	r2,1
 108497c:	003ff406 	br	1084950 <OSEventNameSet+0x24>
 1084980:	0021303a 	rdctl	r16,status
 1084984:	00bfff84 	movi	r2,-2
 1084988:	8084703a 	and	r2,r16,r2
 108498c:	1001703a 	wrctl	status,r2
 1084990:	2807883a 	mov	r3,r5
 1084994:	00000106 	br	108499c <OSEventNameSet+0x70>
 1084998:	18c00044 	addi	r3,r3,1
 108499c:	18800003 	ldbu	r2,0(r3)
 10849a0:	103ffd1e 	bne	r2,zero,1084998 <OSEventNameSet+0x6c>
 10849a4:	1945c83a 	sub	r2,r3,r5
 10849a8:	10803fcc 	andi	r2,r2,255
 10849ac:	00c007c4 	movi	r3,31
 10849b0:	1880032e 	bgeu	r3,r2,10849c0 <OSEventNameSet+0x94>
 10849b4:	8001703a 	wrctl	status,r16
 10849b8:	008002c4 	movi	r2,11
 10849bc:	003fe406 	br	1084950 <OSEventNameSet+0x24>
 10849c0:	21000384 	addi	r4,r4,14
 10849c4:	d9800015 	stw	r6,0(sp)
 10849c8:	1083bf80 	call	1083bf8 <OS_StrCopy>
 10849cc:	8001703a 	wrctl	status,r16
 10849d0:	d9800017 	ldw	r6,0(sp)
 10849d4:	30000005 	stb	zero,0(r6)
 10849d8:	dfc00217 	ldw	ra,8(sp)
 10849dc:	dc000117 	ldw	r16,4(sp)
 10849e0:	dec00304 	addi	sp,sp,12
 10849e4:	f800283a 	ret

010849e8 <OSDebugInit>:
 10849e8:	f800283a 	ret

010849ec <OS_FlagBlock>:
 10849ec:	02404274 	movhi	r9,265
 10849f0:	4a7ba504 	addi	r9,r9,-4460
 10849f4:	48c00017 	ldw	r3,0(r9)
 10849f8:	da000017 	ldw	r8,0(sp)
 10849fc:	02804274 	movhi	r10,265
 1084a00:	52bba204 	addi	r10,r10,-4472
 1084a04:	18800c03 	ldbu	r2,48(r3)
 1084a08:	10800814 	ori	r2,r2,32
 1084a0c:	18800c05 	stb	r2,48(r3)
 1084a10:	48800017 	ldw	r2,0(r9)
 1084a14:	10000c45 	stb	zero,49(r2)
 1084a18:	48800017 	ldw	r2,0(r9)
 1084a1c:	12000b8d 	sth	r8,46(r2)
 1084a20:	11400a15 	stw	r5,40(r2)
 1084a24:	29c00485 	stb	r7,18(r5)
 1084a28:	48800017 	ldw	r2,0(r9)
 1084a2c:	2980040d 	sth	r6,16(r5)
 1084a30:	28800215 	stw	r2,8(r5)
 1084a34:	20800117 	ldw	r2,4(r4)
 1084a38:	28000115 	stw	zero,4(r5)
 1084a3c:	29000315 	stw	r4,12(r5)
 1084a40:	28800015 	stw	r2,0(r5)
 1084a44:	20800117 	ldw	r2,4(r4)
 1084a48:	10000126 	beq	r2,zero,1084a50 <OS_FlagBlock+0x64>
 1084a4c:	11400115 	stw	r5,4(r2)
 1084a50:	21400115 	stw	r5,4(r4)
 1084a54:	49400017 	ldw	r5,0(r9)
 1084a58:	00c04274 	movhi	r3,265
 1084a5c:	18fba244 	addi	r3,r3,-4471
 1084a60:	29000d03 	ldbu	r4,52(r5)
 1084a64:	28800d43 	ldbu	r2,53(r5)
 1084a68:	20c9883a 	add	r4,r4,r3
 1084a6c:	20c00003 	ldbu	r3,0(r4)
 1084a70:	0084303a 	nor	r2,zero,r2
 1084a74:	10c4703a 	and	r2,r2,r3
 1084a78:	10c03fcc 	andi	r3,r2,255
 1084a7c:	18c0201c 	xori	r3,r3,128
 1084a80:	18ffe004 	addi	r3,r3,-128
 1084a84:	20800005 	stb	r2,0(r4)
 1084a88:	1800051e 	bne	r3,zero,1084aa0 <OS_FlagBlock+0xb4>
 1084a8c:	28800d83 	ldbu	r2,54(r5)
 1084a90:	50c00003 	ldbu	r3,0(r10)
 1084a94:	0084303a 	nor	r2,zero,r2
 1084a98:	10c4703a 	and	r2,r2,r3
 1084a9c:	50800005 	stb	r2,0(r10)
 1084aa0:	f800283a 	ret

01084aa4 <OS_FlagUnlink>:
 1084aa4:	20c00017 	ldw	r3,0(r4)
 1084aa8:	20800117 	ldw	r2,4(r4)
 1084aac:	180b003a 	cmpeq	r5,r3,zero
 1084ab0:	1000051e 	bne	r2,zero,1084ac8 <OS_FlagUnlink+0x24>
 1084ab4:	20800317 	ldw	r2,12(r4)
 1084ab8:	10c00115 	stw	r3,4(r2)
 1084abc:	2800051e 	bne	r5,zero,1084ad4 <OS_FlagUnlink+0x30>
 1084ac0:	18000115 	stw	zero,4(r3)
 1084ac4:	00000306 	br	1084ad4 <OS_FlagUnlink+0x30>
 1084ac8:	10c00015 	stw	r3,0(r2)
 1084acc:	2800011e 	bne	r5,zero,1084ad4 <OS_FlagUnlink+0x30>
 1084ad0:	18800115 	stw	r2,4(r3)
 1084ad4:	20800217 	ldw	r2,8(r4)
 1084ad8:	10000a15 	stw	zero,40(r2)
 1084adc:	f800283a 	ret

01084ae0 <OS_FlagTaskRdy>:
 1084ae0:	200d883a 	mov	r6,r4
 1084ae4:	21000217 	ldw	r4,8(r4)
 1084ae8:	defffe04 	addi	sp,sp,-8
 1084aec:	dc000015 	stw	r16,0(sp)
 1084af0:	dfc00115 	stw	ra,4(sp)
 1084af4:	20800c03 	ldbu	r2,48(r4)
 1084af8:	01c04274 	movhi	r7,265
 1084afc:	39fba204 	addi	r7,r7,-4472
 1084b00:	0021883a 	mov	r16,zero
 1084b04:	108037cc 	andi	r2,r2,223
 1084b08:	20800c05 	stb	r2,48(r4)
 1084b0c:	10803fcc 	andi	r2,r2,255
 1084b10:	21400b0d 	sth	r5,44(r4)
 1084b14:	20000c45 	stb	zero,49(r4)
 1084b18:	20000b8d 	sth	zero,46(r4)
 1084b1c:	10000d1e 	bne	r2,zero,1084b54 <OS_FlagTaskRdy+0x74>
 1084b20:	20c00d83 	ldbu	r3,54(r4)
 1084b24:	38800003 	ldbu	r2,0(r7)
 1084b28:	04000044 	movi	r16,1
 1084b2c:	10c4b03a 	or	r2,r2,r3
 1084b30:	38800005 	stb	r2,0(r7)
 1084b34:	20c00d03 	ldbu	r3,52(r4)
 1084b38:	00804274 	movhi	r2,265
 1084b3c:	10bba244 	addi	r2,r2,-4471
 1084b40:	21000d43 	ldbu	r4,53(r4)
 1084b44:	1887883a 	add	r3,r3,r2
 1084b48:	18800003 	ldbu	r2,0(r3)
 1084b4c:	1104b03a 	or	r2,r2,r4
 1084b50:	18800005 	stb	r2,0(r3)
 1084b54:	3009883a 	mov	r4,r6
 1084b58:	1084aa40 	call	1084aa4 <OS_FlagUnlink>
 1084b5c:	80803fcc 	andi	r2,r16,255
 1084b60:	dfc00117 	ldw	ra,4(sp)
 1084b64:	dc000017 	ldw	r16,0(sp)
 1084b68:	dec00204 	addi	sp,sp,8
 1084b6c:	f800283a 	ret

01084b70 <OS_FlagInit>:
 1084b70:	deffff04 	addi	sp,sp,-4
 1084b74:	0140dc04 	movi	r5,880
 1084b78:	01004274 	movhi	r4,265
 1084b7c:	2113be04 	addi	r4,r4,20216
 1084b80:	dfc00015 	stw	ra,0(sp)
 1084b84:	1083bb80 	call	1083bb8 <OS_MemClr>
 1084b88:	01404274 	movhi	r5,265
 1084b8c:	2953c904 	addi	r5,r5,20260
 1084b90:	01800fc4 	movi	r6,63
 1084b94:	2880d104 	addi	r2,r5,836
 1084b98:	283ff505 	stb	zero,-44(r5)
 1084b9c:	297ff615 	stw	r5,-40(r5)
 1084ba0:	29bff785 	stb	r6,-34(r5)
 1084ba4:	283ff7c5 	stb	zero,-33(r5)
 1084ba8:	29400b04 	addi	r5,r5,44
 1084bac:	28bffa1e 	bne	r5,r2,1084b98 <OS_FlagInit+0x28>
 1084bb0:	293f2404 	addi	r4,r5,-880
 1084bb4:	00804274 	movhi	r2,265
 1084bb8:	10bba904 	addi	r2,r2,-4444
 1084bbc:	28fff504 	addi	r3,r5,-44
 1084bc0:	11000015 	stw	r4,0(r2)
 1084bc4:	19800285 	stb	r6,10(r3)
 1084bc8:	180002c5 	stb	zero,11(r3)
 1084bcc:	283ff505 	stb	zero,-44(r5)
 1084bd0:	18000115 	stw	zero,4(r3)
 1084bd4:	dfc00017 	ldw	ra,0(sp)
 1084bd8:	dec00104 	addi	sp,sp,4
 1084bdc:	f800283a 	ret

01084be0 <OSFlagQuery>:
 1084be0:	000d883a 	mov	r6,zero
 1084be4:	28001326 	beq	r5,zero,1084c34 <OSFlagQuery+0x54>
 1084be8:	000d883a 	mov	r6,zero
 1084bec:	2000021e 	bne	r4,zero,1084bf8 <OSFlagQuery+0x18>
 1084bf0:	00801b84 	movi	r2,110
 1084bf4:	00000506 	br	1084c0c <OSFlagQuery+0x2c>
 1084bf8:	20c00003 	ldbu	r3,0(r4)
 1084bfc:	00800144 	movi	r2,5
 1084c00:	000d883a 	mov	r6,zero
 1084c04:	18800326 	beq	r3,r2,1084c14 <OSFlagQuery+0x34>
 1084c08:	00800044 	movi	r2,1
 1084c0c:	28800005 	stb	r2,0(r5)
 1084c10:	00000806 	br	1084c34 <OSFlagQuery+0x54>
 1084c14:	0005303a 	rdctl	r2,status
 1084c18:	00ffff84 	movi	r3,-2
 1084c1c:	10c6703a 	and	r3,r2,r3
 1084c20:	1801703a 	wrctl	status,r3
 1084c24:	20c0020b 	ldhu	r3,8(r4)
 1084c28:	1001703a 	wrctl	status,r2
 1084c2c:	28000005 	stb	zero,0(r5)
 1084c30:	180d883a 	mov	r6,r3
 1084c34:	3005883a 	mov	r2,r6
 1084c38:	f800283a 	ret

01084c3c <OSFlagAccept>:
 1084c3c:	3011883a 	mov	r8,r6
 1084c40:	3800021e 	bne	r7,zero,1084c4c <OSFlagAccept+0x10>
 1084c44:	0007883a 	mov	r3,zero
 1084c48:	00005606 	br	1084da4 <OSFlagAccept+0x168>
 1084c4c:	2000031e 	bne	r4,zero,1084c5c <OSFlagAccept+0x20>
 1084c50:	0007883a 	mov	r3,zero
 1084c54:	00801b84 	movi	r2,110
 1084c58:	00000506 	br	1084c70 <OSFlagAccept+0x34>
 1084c5c:	20c00003 	ldbu	r3,0(r4)
 1084c60:	00800144 	movi	r2,5
 1084c64:	18800426 	beq	r3,r2,1084c78 <OSFlagAccept+0x3c>
 1084c68:	0007883a 	mov	r3,zero
 1084c6c:	00800044 	movi	r2,1
 1084c70:	38800005 	stb	r2,0(r7)
 1084c74:	00004b06 	br	1084da4 <OSFlagAccept+0x168>
 1084c78:	00bfe004 	movi	r2,-128
 1084c7c:	3084703a 	and	r2,r6,r2
 1084c80:	10803fcc 	andi	r2,r2,255
 1084c84:	1000021e 	bne	r2,zero,1084c90 <OSFlagAccept+0x54>
 1084c88:	0015883a 	mov	r10,zero
 1084c8c:	00000206 	br	1084c98 <OSFlagAccept+0x5c>
 1084c90:	32001fcc 	andi	r8,r6,127
 1084c94:	02800044 	movi	r10,1
 1084c98:	38000005 	stb	zero,0(r7)
 1084c9c:	0017303a 	rdctl	r11,status
 1084ca0:	00bfff84 	movi	r2,-2
 1084ca4:	5884703a 	and	r2,r11,r2
 1084ca8:	1001703a 	wrctl	status,r2
 1084cac:	41803fcc 	andi	r6,r8,255
 1084cb0:	02400044 	movi	r9,1
 1084cb4:	32402526 	beq	r6,r9,1084d4c <OSFlagAccept+0x110>
 1084cb8:	32401936 	bltu	r6,r9,1084d20 <OSFlagAccept+0xe4>
 1084cbc:	00800084 	movi	r2,2
 1084cc0:	30800326 	beq	r6,r2,1084cd0 <OSFlagAccept+0x94>
 1084cc4:	008000c4 	movi	r2,3
 1084cc8:	3080311e 	bne	r6,r2,1084d90 <OSFlagAccept+0x154>
 1084ccc:	00000a06 	br	1084cf8 <OSFlagAccept+0xbc>
 1084cd0:	2180020b 	ldhu	r6,8(r4)
 1084cd4:	28ffffcc 	andi	r3,r5,65535
 1084cd8:	314a703a 	and	r5,r6,r5
 1084cdc:	28bfffcc 	andi	r2,r5,65535
 1084ce0:	2811883a 	mov	r8,r5
 1084ce4:	10c0261e 	bne	r2,r3,1084d80 <OSFlagAccept+0x144>
 1084ce8:	50803fcc 	andi	r2,r10,255
 1084cec:	1240261e 	bne	r2,r9,1084d88 <OSFlagAccept+0x14c>
 1084cf0:	0144303a 	nor	r2,zero,r5
 1084cf4:	00000806 	br	1084d18 <OSFlagAccept+0xdc>
 1084cf8:	2180020b 	ldhu	r6,8(r4)
 1084cfc:	3146703a 	and	r3,r6,r5
 1084d00:	18bfffcc 	andi	r2,r3,65535
 1084d04:	1811883a 	mov	r8,r3
 1084d08:	10001d26 	beq	r2,zero,1084d80 <OSFlagAccept+0x144>
 1084d0c:	50803fcc 	andi	r2,r10,255
 1084d10:	12401d1e 	bne	r2,r9,1084d88 <OSFlagAccept+0x14c>
 1084d14:	00c4303a 	nor	r2,zero,r3
 1084d18:	1184703a 	and	r2,r2,r6
 1084d1c:	00001606 	br	1084d78 <OSFlagAccept+0x13c>
 1084d20:	2180020b 	ldhu	r6,8(r4)
 1084d24:	28bfffcc 	andi	r2,r5,65535
 1084d28:	0186303a 	nor	r3,zero,r6
 1084d2c:	194a703a 	and	r5,r3,r5
 1084d30:	28ffffcc 	andi	r3,r5,65535
 1084d34:	2811883a 	mov	r8,r5
 1084d38:	1880111e 	bne	r3,r2,1084d80 <OSFlagAccept+0x144>
 1084d3c:	50803fcc 	andi	r2,r10,255
 1084d40:	1240111e 	bne	r2,r9,1084d88 <OSFlagAccept+0x14c>
 1084d44:	2984b03a 	or	r2,r5,r6
 1084d48:	00000b06 	br	1084d78 <OSFlagAccept+0x13c>
 1084d4c:	2240020b 	ldhu	r9,8(r4)
 1084d50:	0244303a 	nor	r2,zero,r9
 1084d54:	1146703a 	and	r3,r2,r5
 1084d58:	18bfffcc 	andi	r2,r3,65535
 1084d5c:	10a0001c 	xori	r2,r2,32768
 1084d60:	10a00004 	addi	r2,r2,-32768
 1084d64:	1811883a 	mov	r8,r3
 1084d68:	10000526 	beq	r2,zero,1084d80 <OSFlagAccept+0x144>
 1084d6c:	50803fcc 	andi	r2,r10,255
 1084d70:	1180051e 	bne	r2,r6,1084d88 <OSFlagAccept+0x14c>
 1084d74:	1a44b03a 	or	r2,r3,r9
 1084d78:	2080020d 	sth	r2,8(r4)
 1084d7c:	00000206 	br	1084d88 <OSFlagAccept+0x14c>
 1084d80:	00801c04 	movi	r2,112
 1084d84:	38800005 	stb	r2,0(r7)
 1084d88:	5801703a 	wrctl	status,r11
 1084d8c:	00000406 	br	1084da0 <OSFlagAccept+0x164>
 1084d90:	5801703a 	wrctl	status,r11
 1084d94:	00801bc4 	movi	r2,111
 1084d98:	38800005 	stb	r2,0(r7)
 1084d9c:	0011883a 	mov	r8,zero
 1084da0:	40ffffcc 	andi	r3,r8,65535
 1084da4:	1805883a 	mov	r2,r3
 1084da8:	f800283a 	ret

01084dac <OSFlagCreate>:
 1084dac:	0007883a 	mov	r3,zero
 1084db0:	28001e26 	beq	r5,zero,1084e2c <OSFlagCreate+0x80>
 1084db4:	00804274 	movhi	r2,265
 1084db8:	10bba404 	addi	r2,r2,-4464
 1084dbc:	10800003 	ldbu	r2,0(r2)
 1084dc0:	0007883a 	mov	r3,zero
 1084dc4:	10000226 	beq	r2,zero,1084dd0 <OSFlagCreate+0x24>
 1084dc8:	00800404 	movi	r2,16
 1084dcc:	00001606 	br	1084e28 <OSFlagCreate+0x7c>
 1084dd0:	000d303a 	rdctl	r6,status
 1084dd4:	00bfff84 	movi	r2,-2
 1084dd8:	3084703a 	and	r2,r6,r2
 1084ddc:	1001703a 	wrctl	status,r2
 1084de0:	01c04274 	movhi	r7,265
 1084de4:	39fba904 	addi	r7,r7,-4444
 1084de8:	38c00017 	ldw	r3,0(r7)
 1084dec:	18000c26 	beq	r3,zero,1084e20 <OSFlagCreate+0x74>
 1084df0:	18800117 	ldw	r2,4(r3)
 1084df4:	1900020d 	sth	r4,8(r3)
 1084df8:	18000115 	stw	zero,4(r3)
 1084dfc:	38800015 	stw	r2,0(r7)
 1084e00:	00800144 	movi	r2,5
 1084e04:	18800005 	stb	r2,0(r3)
 1084e08:	00800fc4 	movi	r2,63
 1084e0c:	18800285 	stb	r2,10(r3)
 1084e10:	180002c5 	stb	zero,11(r3)
 1084e14:	3001703a 	wrctl	status,r6
 1084e18:	28000005 	stb	zero,0(r5)
 1084e1c:	00000306 	br	1084e2c <OSFlagCreate+0x80>
 1084e20:	3001703a 	wrctl	status,r6
 1084e24:	00801c84 	movi	r2,114
 1084e28:	28800005 	stb	r2,0(r5)
 1084e2c:	1805883a 	mov	r2,r3
 1084e30:	f800283a 	ret

01084e34 <OSFlagDel>:
 1084e34:	defffa04 	addi	sp,sp,-24
 1084e38:	dc400215 	stw	r17,8(sp)
 1084e3c:	dfc00515 	stw	ra,20(sp)
 1084e40:	dcc00415 	stw	r19,16(sp)
 1084e44:	dc800315 	stw	r18,12(sp)
 1084e48:	dc000115 	stw	r16,4(sp)
 1084e4c:	2023883a 	mov	r17,r4
 1084e50:	30004826 	beq	r6,zero,1084f74 <OSFlagDel+0x140>
 1084e54:	2000021e 	bne	r4,zero,1084e60 <OSFlagDel+0x2c>
 1084e58:	00801b84 	movi	r2,110
 1084e5c:	00004406 	br	1084f70 <OSFlagDel+0x13c>
 1084e60:	00804274 	movhi	r2,265
 1084e64:	10bba404 	addi	r2,r2,-4464
 1084e68:	10800003 	ldbu	r2,0(r2)
 1084e6c:	10000226 	beq	r2,zero,1084e78 <OSFlagDel+0x44>
 1084e70:	008003c4 	movi	r2,15
 1084e74:	00003e06 	br	1084f70 <OSFlagDel+0x13c>
 1084e78:	20c00003 	ldbu	r3,0(r4)
 1084e7c:	00800144 	movi	r2,5
 1084e80:	18800226 	beq	r3,r2,1084e8c <OSFlagDel+0x58>
 1084e84:	00800044 	movi	r2,1
 1084e88:	00003906 	br	1084f70 <OSFlagDel+0x13c>
 1084e8c:	0025303a 	rdctl	r18,status
 1084e90:	00bfff84 	movi	r2,-2
 1084e94:	9084703a 	and	r2,r18,r2
 1084e98:	1001703a 	wrctl	status,r2
 1084e9c:	21000117 	ldw	r4,4(r4)
 1084ea0:	29403fcc 	andi	r5,r5,255
 1084ea4:	2004c03a 	cmpne	r2,r4,zero
 1084ea8:	1027883a 	mov	r19,r2
 1084eac:	28000326 	beq	r5,zero,1084ebc <OSFlagDel+0x88>
 1084eb0:	00800044 	movi	r2,1
 1084eb4:	28802c1e 	bne	r5,r2,1084f68 <OSFlagDel+0x134>
 1084eb8:	00001006 	br	1084efc <OSFlagDel+0xc8>
 1084ebc:	10000c1e 	bne	r2,zero,1084ef0 <OSFlagDel+0xbc>
 1084ec0:	00800fc4 	movi	r2,63
 1084ec4:	88800285 	stb	r2,10(r17)
 1084ec8:	880002c5 	stb	zero,11(r17)
 1084ecc:	88000005 	stb	zero,0(r17)
 1084ed0:	00804274 	movhi	r2,265
 1084ed4:	10bba904 	addi	r2,r2,-4444
 1084ed8:	10c00017 	ldw	r3,0(r2)
 1084edc:	8800020d 	sth	zero,8(r17)
 1084ee0:	14400015 	stw	r17,0(r2)
 1084ee4:	88c00115 	stw	r3,4(r17)
 1084ee8:	9001703a 	wrctl	status,r18
 1084eec:	00001b06 	br	1084f5c <OSFlagDel+0x128>
 1084ef0:	9001703a 	wrctl	status,r18
 1084ef4:	00801244 	movi	r2,73
 1084ef8:	00001d06 	br	1084f70 <OSFlagDel+0x13c>
 1084efc:	2021883a 	mov	r16,r4
 1084f00:	00000406 	br	1084f14 <OSFlagDel+0xe0>
 1084f04:	d9800015 	stw	r6,0(sp)
 1084f08:	1084ae00 	call	1084ae0 <OS_FlagTaskRdy>
 1084f0c:	84000017 	ldw	r16,0(r16)
 1084f10:	d9800017 	ldw	r6,0(sp)
 1084f14:	8009883a 	mov	r4,r16
 1084f18:	000b883a 	mov	r5,zero
 1084f1c:	803ff91e 	bne	r16,zero,1084f04 <OSFlagDel+0xd0>
 1084f20:	00800fc4 	movi	r2,63
 1084f24:	88800285 	stb	r2,10(r17)
 1084f28:	880002c5 	stb	zero,11(r17)
 1084f2c:	88000005 	stb	zero,0(r17)
 1084f30:	00804274 	movhi	r2,265
 1084f34:	10bba904 	addi	r2,r2,-4444
 1084f38:	10c00017 	ldw	r3,0(r2)
 1084f3c:	8800020d 	sth	zero,8(r17)
 1084f40:	14400015 	stw	r17,0(r2)
 1084f44:	88c00115 	stw	r3,4(r17)
 1084f48:	9001703a 	wrctl	status,r18
 1084f4c:	98000326 	beq	r19,zero,1084f5c <OSFlagDel+0x128>
 1084f50:	d9800015 	stw	r6,0(sp)
 1084f54:	1083cc80 	call	1083cc8 <OS_Sched>
 1084f58:	d9800017 	ldw	r6,0(sp)
 1084f5c:	0023883a 	mov	r17,zero
 1084f60:	30000005 	stb	zero,0(r6)
 1084f64:	00000306 	br	1084f74 <OSFlagDel+0x140>
 1084f68:	9001703a 	wrctl	status,r18
 1084f6c:	008001c4 	movi	r2,7
 1084f70:	30800005 	stb	r2,0(r6)
 1084f74:	8805883a 	mov	r2,r17
 1084f78:	dfc00517 	ldw	ra,20(sp)
 1084f7c:	dcc00417 	ldw	r19,16(sp)
 1084f80:	dc800317 	ldw	r18,12(sp)
 1084f84:	dc400217 	ldw	r17,8(sp)
 1084f88:	dc000117 	ldw	r16,4(sp)
 1084f8c:	dec00604 	addi	sp,sp,24
 1084f90:	f800283a 	ret

01084f94 <OSFlagNameGet>:
 1084f94:	defffd04 	addi	sp,sp,-12
 1084f98:	dc000015 	stw	r16,0(sp)
 1084f9c:	3021883a 	mov	r16,r6
 1084fa0:	dfc00215 	stw	ra,8(sp)
 1084fa4:	dc400115 	stw	r17,4(sp)
 1084fa8:	200d883a 	mov	r6,r4
 1084fac:	8000021e 	bne	r16,zero,1084fb8 <OSFlagNameGet+0x24>
 1084fb0:	0007883a 	mov	r3,zero
 1084fb4:	00002106 	br	108503c <OSFlagNameGet+0xa8>
 1084fb8:	2000031e 	bne	r4,zero,1084fc8 <OSFlagNameGet+0x34>
 1084fbc:	0007883a 	mov	r3,zero
 1084fc0:	00801b84 	movi	r2,110
 1084fc4:	00000306 	br	1084fd4 <OSFlagNameGet+0x40>
 1084fc8:	2800041e 	bne	r5,zero,1084fdc <OSFlagNameGet+0x48>
 1084fcc:	0007883a 	mov	r3,zero
 1084fd0:	00800304 	movi	r2,12
 1084fd4:	80800005 	stb	r2,0(r16)
 1084fd8:	00001806 	br	108503c <OSFlagNameGet+0xa8>
 1084fdc:	00804274 	movhi	r2,265
 1084fe0:	10bba404 	addi	r2,r2,-4464
 1084fe4:	10800003 	ldbu	r2,0(r2)
 1084fe8:	10000326 	beq	r2,zero,1084ff8 <OSFlagNameGet+0x64>
 1084fec:	0007883a 	mov	r3,zero
 1084ff0:	00800444 	movi	r2,17
 1084ff4:	003ff706 	br	1084fd4 <OSFlagNameGet+0x40>
 1084ff8:	0023303a 	rdctl	r17,status
 1084ffc:	00bfff84 	movi	r2,-2
 1085000:	8884703a 	and	r2,r17,r2
 1085004:	1001703a 	wrctl	status,r2
 1085008:	20c00003 	ldbu	r3,0(r4)
 108500c:	00800144 	movi	r2,5
 1085010:	18800426 	beq	r3,r2,1085024 <OSFlagNameGet+0x90>
 1085014:	8801703a 	wrctl	status,r17
 1085018:	0007883a 	mov	r3,zero
 108501c:	00800044 	movi	r2,1
 1085020:	003fec06 	br	1084fd4 <OSFlagNameGet+0x40>
 1085024:	2809883a 	mov	r4,r5
 1085028:	31400284 	addi	r5,r6,10
 108502c:	1083bf80 	call	1083bf8 <OS_StrCopy>
 1085030:	8801703a 	wrctl	status,r17
 1085034:	80000005 	stb	zero,0(r16)
 1085038:	10c03fcc 	andi	r3,r2,255
 108503c:	1805883a 	mov	r2,r3
 1085040:	dfc00217 	ldw	ra,8(sp)
 1085044:	dc400117 	ldw	r17,4(sp)
 1085048:	dc000017 	ldw	r16,0(sp)
 108504c:	dec00304 	addi	sp,sp,12
 1085050:	f800283a 	ret

01085054 <OSFlagNameSet>:
 1085054:	defffb04 	addi	sp,sp,-20
 1085058:	dc800215 	stw	r18,8(sp)
 108505c:	dc400115 	stw	r17,4(sp)
 1085060:	dc000015 	stw	r16,0(sp)
 1085064:	dfc00415 	stw	ra,16(sp)
 1085068:	dcc00315 	stw	r19,12(sp)
 108506c:	3021883a 	mov	r16,r6
 1085070:	2023883a 	mov	r17,r4
 1085074:	2825883a 	mov	r18,r5
 1085078:	30002426 	beq	r6,zero,108510c <OSFlagNameSet+0xb8>
 108507c:	2000021e 	bne	r4,zero,1085088 <OSFlagNameSet+0x34>
 1085080:	00801b84 	movi	r2,110
 1085084:	00000206 	br	1085090 <OSFlagNameSet+0x3c>
 1085088:	2800031e 	bne	r5,zero,1085098 <OSFlagNameSet+0x44>
 108508c:	00800304 	movi	r2,12
 1085090:	80800005 	stb	r2,0(r16)
 1085094:	00001d06 	br	108510c <OSFlagNameSet+0xb8>
 1085098:	00804274 	movhi	r2,265
 108509c:	10bba404 	addi	r2,r2,-4464
 10850a0:	10800003 	ldbu	r2,0(r2)
 10850a4:	10000226 	beq	r2,zero,10850b0 <OSFlagNameSet+0x5c>
 10850a8:	00800484 	movi	r2,18
 10850ac:	003ff806 	br	1085090 <OSFlagNameSet+0x3c>
 10850b0:	0027303a 	rdctl	r19,status
 10850b4:	00bfff84 	movi	r2,-2
 10850b8:	9884703a 	and	r2,r19,r2
 10850bc:	1001703a 	wrctl	status,r2
 10850c0:	20c00003 	ldbu	r3,0(r4)
 10850c4:	00800144 	movi	r2,5
 10850c8:	18800326 	beq	r3,r2,10850d8 <OSFlagNameSet+0x84>
 10850cc:	9801703a 	wrctl	status,r19
 10850d0:	00800044 	movi	r2,1
 10850d4:	003fee06 	br	1085090 <OSFlagNameSet+0x3c>
 10850d8:	2809883a 	mov	r4,r5
 10850dc:	1083c240 	call	1083c24 <OS_StrLen>
 10850e0:	10803fcc 	andi	r2,r2,255
 10850e4:	00c007c4 	movi	r3,31
 10850e8:	1880032e 	bgeu	r3,r2,10850f8 <OSFlagNameSet+0xa4>
 10850ec:	9801703a 	wrctl	status,r19
 10850f0:	00801cc4 	movi	r2,115
 10850f4:	003fe606 	br	1085090 <OSFlagNameSet+0x3c>
 10850f8:	89000284 	addi	r4,r17,10
 10850fc:	900b883a 	mov	r5,r18
 1085100:	1083bf80 	call	1083bf8 <OS_StrCopy>
 1085104:	9801703a 	wrctl	status,r19
 1085108:	80000005 	stb	zero,0(r16)
 108510c:	dfc00417 	ldw	ra,16(sp)
 1085110:	dcc00317 	ldw	r19,12(sp)
 1085114:	dc800217 	ldw	r18,8(sp)
 1085118:	dc400117 	ldw	r17,4(sp)
 108511c:	dc000017 	ldw	r16,0(sp)
 1085120:	dec00504 	addi	sp,sp,20
 1085124:	f800283a 	ret

01085128 <OSFlagPend>:
 1085128:	defff204 	addi	sp,sp,-56
 108512c:	dd000a15 	stw	r20,40(sp)
 1085130:	dd000e17 	ldw	r20,56(sp)
 1085134:	dd800c15 	stw	r22,48(sp)
 1085138:	dc000615 	stw	r16,24(sp)
 108513c:	dfc00d15 	stw	ra,52(sp)
 1085140:	dd400b15 	stw	r21,44(sp)
 1085144:	dcc00915 	stw	r19,36(sp)
 1085148:	dc800815 	stw	r18,32(sp)
 108514c:	dc400715 	stw	r17,28(sp)
 1085150:	2021883a 	mov	r16,r4
 1085154:	3813883a 	mov	r9,r7
 1085158:	302d883a 	mov	r22,r6
 108515c:	a000021e 	bne	r20,zero,1085168 <OSFlagPend+0x40>
 1085160:	000d883a 	mov	r6,zero
 1085164:	0000a506 	br	10853fc <OSFlagPend+0x2d4>
 1085168:	2000031e 	bne	r4,zero,1085178 <OSFlagPend+0x50>
 108516c:	000d883a 	mov	r6,zero
 1085170:	00801b84 	movi	r2,110
 1085174:	00000606 	br	1085190 <OSFlagPend+0x68>
 1085178:	00804274 	movhi	r2,265
 108517c:	10bba404 	addi	r2,r2,-4464
 1085180:	10800003 	ldbu	r2,0(r2)
 1085184:	10000426 	beq	r2,zero,1085198 <OSFlagPend+0x70>
 1085188:	000d883a 	mov	r6,zero
 108518c:	00800084 	movi	r2,2
 1085190:	a0800005 	stb	r2,0(r20)
 1085194:	00009906 	br	10853fc <OSFlagPend+0x2d4>
 1085198:	00804274 	movhi	r2,265
 108519c:	10bb9304 	addi	r2,r2,-4532
 10851a0:	10800003 	ldbu	r2,0(r2)
 10851a4:	10000326 	beq	r2,zero,10851b4 <OSFlagPend+0x8c>
 10851a8:	000d883a 	mov	r6,zero
 10851ac:	00800344 	movi	r2,13
 10851b0:	003ff706 	br	1085190 <OSFlagPend+0x68>
 10851b4:	20c00003 	ldbu	r3,0(r4)
 10851b8:	00800144 	movi	r2,5
 10851bc:	18800326 	beq	r3,r2,10851cc <OSFlagPend+0xa4>
 10851c0:	000d883a 	mov	r6,zero
 10851c4:	00800044 	movi	r2,1
 10851c8:	003ff106 	br	1085190 <OSFlagPend+0x68>
 10851cc:	00bfe004 	movi	r2,-128
 10851d0:	3084703a 	and	r2,r6,r2
 10851d4:	10803fcc 	andi	r2,r2,255
 10851d8:	1000021e 	bne	r2,zero,10851e4 <OSFlagPend+0xbc>
 10851dc:	002b883a 	mov	r21,zero
 10851e0:	00000206 	br	10851ec <OSFlagPend+0xc4>
 10851e4:	35801fcc 	andi	r22,r6,127
 10851e8:	05400044 	movi	r21,1
 10851ec:	0023303a 	rdctl	r17,status
 10851f0:	00bfff84 	movi	r2,-2
 10851f4:	8884703a 	and	r2,r17,r2
 10851f8:	1001703a 	wrctl	status,r2
 10851fc:	b1c03fcc 	andi	r7,r22,255
 1085200:	02000044 	movi	r8,1
 1085204:	3a003026 	beq	r7,r8,10852c8 <OSFlagPend+0x1a0>
 1085208:	3a001d36 	bltu	r7,r8,1085280 <OSFlagPend+0x158>
 108520c:	00800084 	movi	r2,2
 1085210:	38800326 	beq	r7,r2,1085220 <OSFlagPend+0xf8>
 1085214:	008000c4 	movi	r2,3
 1085218:	3880421e 	bne	r7,r2,1085324 <OSFlagPend+0x1fc>
 108521c:	00000a06 	br	1085248 <OSFlagPend+0x120>
 1085220:	80c0020b 	ldhu	r3,8(r16)
 1085224:	29bfffcc 	andi	r6,r5,65535
 1085228:	194a703a 	and	r5,r3,r5
 108522c:	28bfffcc 	andi	r2,r5,65535
 1085230:	1180231e 	bne	r2,r6,10852c0 <OSFlagPend+0x198>
 1085234:	a8803fcc 	andi	r2,r21,255
 1085238:	12001b1e 	bne	r2,r8,10852a8 <OSFlagPend+0x180>
 108523c:	0144303a 	nor	r2,zero,r5
 1085240:	10c4703a 	and	r2,r2,r3
 1085244:	00001706 	br	10852a4 <OSFlagPend+0x17c>
 1085248:	8100020b 	ldhu	r4,8(r16)
 108524c:	2146703a 	and	r3,r4,r5
 1085250:	19bfffcc 	andi	r6,r3,65535
 1085254:	30003026 	beq	r6,zero,1085318 <OSFlagPend+0x1f0>
 1085258:	a8803fcc 	andi	r2,r21,255
 108525c:	1200031e 	bne	r2,r8,108526c <OSFlagPend+0x144>
 1085260:	00c4303a 	nor	r2,zero,r3
 1085264:	1104703a 	and	r2,r2,r4
 1085268:	8080020d 	sth	r2,8(r16)
 108526c:	00804274 	movhi	r2,265
 1085270:	10bba504 	addi	r2,r2,-4460
 1085274:	10800017 	ldw	r2,0(r2)
 1085278:	10c00b0d 	sth	r3,44(r2)
 108527c:	00000e06 	br	10852b8 <OSFlagPend+0x190>
 1085280:	80c0020b 	ldhu	r3,8(r16)
 1085284:	29bfffcc 	andi	r6,r5,65535
 1085288:	00c4303a 	nor	r2,zero,r3
 108528c:	114a703a 	and	r5,r2,r5
 1085290:	28bfffcc 	andi	r2,r5,65535
 1085294:	11800a1e 	bne	r2,r6,10852c0 <OSFlagPend+0x198>
 1085298:	a8803fcc 	andi	r2,r21,255
 108529c:	1200021e 	bne	r2,r8,10852a8 <OSFlagPend+0x180>
 10852a0:	28c4b03a 	or	r2,r5,r3
 10852a4:	8080020d 	sth	r2,8(r16)
 10852a8:	00804274 	movhi	r2,265
 10852ac:	10bba504 	addi	r2,r2,-4460
 10852b0:	10800017 	ldw	r2,0(r2)
 10852b4:	11400b0d 	sth	r5,44(r2)
 10852b8:	8801703a 	wrctl	status,r17
 10852bc:	00001406 	br	1085310 <OSFlagPend+0x1e8>
 10852c0:	48bfffcc 	andi	r2,r9,65535
 10852c4:	00001906 	br	108532c <OSFlagPend+0x204>
 10852c8:	8100020b 	ldhu	r4,8(r16)
 10852cc:	0104303a 	nor	r2,zero,r4
 10852d0:	1146703a 	and	r3,r2,r5
 10852d4:	18bfffcc 	andi	r2,r3,65535
 10852d8:	10a0001c 	xori	r2,r2,32768
 10852dc:	10a00004 	addi	r2,r2,-32768
 10852e0:	180d883a 	mov	r6,r3
 10852e4:	10000c26 	beq	r2,zero,1085318 <OSFlagPend+0x1f0>
 10852e8:	a8803fcc 	andi	r2,r21,255
 10852ec:	11c0021e 	bne	r2,r7,10852f8 <OSFlagPend+0x1d0>
 10852f0:	1904b03a 	or	r2,r3,r4
 10852f4:	8080020d 	sth	r2,8(r16)
 10852f8:	00804274 	movhi	r2,265
 10852fc:	10bba504 	addi	r2,r2,-4460
 1085300:	10800017 	ldw	r2,0(r2)
 1085304:	10c00b0d 	sth	r3,44(r2)
 1085308:	8801703a 	wrctl	status,r17
 108530c:	31bfffcc 	andi	r6,r6,65535
 1085310:	a0000005 	stb	zero,0(r20)
 1085314:	00003906 	br	10853fc <OSFlagPend+0x2d4>
 1085318:	48bfffcc 	andi	r2,r9,65535
 108531c:	29bfffcc 	andi	r6,r5,65535
 1085320:	00000206 	br	108532c <OSFlagPend+0x204>
 1085324:	8801703a 	wrctl	status,r17
 1085328:	00002e06 	br	10853e4 <OSFlagPend+0x2bc>
 108532c:	8009883a 	mov	r4,r16
 1085330:	d9400104 	addi	r5,sp,4
 1085334:	d8800015 	stw	r2,0(sp)
 1085338:	10849ec0 	call	10849ec <OS_FlagBlock>
 108533c:	8801703a 	wrctl	status,r17
 1085340:	1083cc80 	call	1083cc8 <OS_Sched>
 1085344:	0027303a 	rdctl	r19,status
 1085348:	00bfff84 	movi	r2,-2
 108534c:	9884703a 	and	r2,r19,r2
 1085350:	1001703a 	wrctl	status,r2
 1085354:	04804274 	movhi	r18,265
 1085358:	94bba504 	addi	r18,r18,-4460
 108535c:	90800017 	ldw	r2,0(r18)
 1085360:	14400c43 	ldbu	r17,49(r2)
 1085364:	88000e26 	beq	r17,zero,10853a0 <OSFlagPend+0x278>
 1085368:	10000c45 	stb	zero,49(r2)
 108536c:	d9000104 	addi	r4,sp,4
 1085370:	1084aa40 	call	1084aa4 <OS_FlagUnlink>
 1085374:	90800017 	ldw	r2,0(r18)
 1085378:	10000c05 	stb	zero,48(r2)
 108537c:	9801703a 	wrctl	status,r19
 1085380:	00800084 	movi	r2,2
 1085384:	8880031e 	bne	r17,r2,1085394 <OSFlagPend+0x26c>
 1085388:	000d883a 	mov	r6,zero
 108538c:	00800384 	movi	r2,14
 1085390:	003f7f06 	br	1085190 <OSFlagPend+0x68>
 1085394:	000d883a 	mov	r6,zero
 1085398:	00800284 	movi	r2,10
 108539c:	003f7c06 	br	1085190 <OSFlagPend+0x68>
 10853a0:	11800b0b 	ldhu	r6,44(r2)
 10853a4:	a9003fcc 	andi	r4,r21,255
 10853a8:	00800044 	movi	r2,1
 10853ac:	2080101e 	bne	r4,r2,10853f0 <OSFlagPend+0x2c8>
 10853b0:	b0c03fcc 	andi	r3,r22,255
 10853b4:	20c0062e 	bgeu	r4,r3,10853d0 <OSFlagPend+0x2a8>
 10853b8:	008000c4 	movi	r2,3
 10853bc:	10c00836 	bltu	r2,r3,10853e0 <OSFlagPend+0x2b8>
 10853c0:	80c0020b 	ldhu	r3,8(r16)
 10853c4:	0184303a 	nor	r2,zero,r6
 10853c8:	10c4703a 	and	r2,r2,r3
 10853cc:	00000206 	br	10853d8 <OSFlagPend+0x2b0>
 10853d0:	8080020b 	ldhu	r2,8(r16)
 10853d4:	1184b03a 	or	r2,r2,r6
 10853d8:	8080020d 	sth	r2,8(r16)
 10853dc:	00000406 	br	10853f0 <OSFlagPend+0x2c8>
 10853e0:	9801703a 	wrctl	status,r19
 10853e4:	000d883a 	mov	r6,zero
 10853e8:	00801bc4 	movi	r2,111
 10853ec:	003f6806 	br	1085190 <OSFlagPend+0x68>
 10853f0:	9801703a 	wrctl	status,r19
 10853f4:	a0000005 	stb	zero,0(r20)
 10853f8:	31bfffcc 	andi	r6,r6,65535
 10853fc:	3005883a 	mov	r2,r6
 1085400:	dfc00d17 	ldw	ra,52(sp)
 1085404:	dd800c17 	ldw	r22,48(sp)
 1085408:	dd400b17 	ldw	r21,44(sp)
 108540c:	dd000a17 	ldw	r20,40(sp)
 1085410:	dcc00917 	ldw	r19,36(sp)
 1085414:	dc800817 	ldw	r18,32(sp)
 1085418:	dc400717 	ldw	r17,28(sp)
 108541c:	dc000617 	ldw	r16,24(sp)
 1085420:	dec00e04 	addi	sp,sp,56
 1085424:	f800283a 	ret

01085428 <OSFlagPendGetFlagsRdy>:
 1085428:	0007303a 	rdctl	r3,status
 108542c:	00bfff84 	movi	r2,-2
 1085430:	1884703a 	and	r2,r3,r2
 1085434:	1001703a 	wrctl	status,r2
 1085438:	00804274 	movhi	r2,265
 108543c:	10bba504 	addi	r2,r2,-4460
 1085440:	10800017 	ldw	r2,0(r2)
 1085444:	10800b0b 	ldhu	r2,44(r2)
 1085448:	1801703a 	wrctl	status,r3
 108544c:	10bfffcc 	andi	r2,r2,65535
 1085450:	f800283a 	ret

01085454 <OSFlagPost>:
 1085454:	defff804 	addi	sp,sp,-32
 1085458:	dd000415 	stw	r20,16(sp)
 108545c:	dc800215 	stw	r18,8(sp)
 1085460:	dfc00715 	stw	ra,28(sp)
 1085464:	dd800615 	stw	r22,24(sp)
 1085468:	dd400515 	stw	r21,20(sp)
 108546c:	dcc00315 	stw	r19,12(sp)
 1085470:	dc400115 	stw	r17,4(sp)
 1085474:	dc000015 	stw	r16,0(sp)
 1085478:	3829883a 	mov	r20,r7
 108547c:	2025883a 	mov	r18,r4
 1085480:	3800021e 	bne	r7,zero,108548c <OSFlagPost+0x38>
 1085484:	0007883a 	mov	r3,zero
 1085488:	00006406 	br	108561c <OSFlagPost+0x1c8>
 108548c:	2000031e 	bne	r4,zero,108549c <OSFlagPost+0x48>
 1085490:	0007883a 	mov	r3,zero
 1085494:	00801b84 	movi	r2,110
 1085498:	00000506 	br	10854b0 <OSFlagPost+0x5c>
 108549c:	20c00003 	ldbu	r3,0(r4)
 10854a0:	00800144 	movi	r2,5
 10854a4:	18800426 	beq	r3,r2,10854b8 <OSFlagPost+0x64>
 10854a8:	0007883a 	mov	r3,zero
 10854ac:	00800044 	movi	r2,1
 10854b0:	a0800005 	stb	r2,0(r20)
 10854b4:	00005906 	br	108561c <OSFlagPost+0x1c8>
 10854b8:	002b303a 	rdctl	r21,status
 10854bc:	00bfff84 	movi	r2,-2
 10854c0:	a884703a 	and	r2,r21,r2
 10854c4:	1001703a 	wrctl	status,r2
 10854c8:	31803fcc 	andi	r6,r6,255
 10854cc:	30000326 	beq	r6,zero,10854dc <OSFlagPost+0x88>
 10854d0:	00800044 	movi	r2,1
 10854d4:	30800b1e 	bne	r6,r2,1085504 <OSFlagPost+0xb0>
 10854d8:	00000406 	br	10854ec <OSFlagPost+0x98>
 10854dc:	20c0020b 	ldhu	r3,8(r4)
 10854e0:	0144303a 	nor	r2,zero,r5
 10854e4:	10c4703a 	and	r2,r2,r3
 10854e8:	00000206 	br	10854f4 <OSFlagPost+0xa0>
 10854ec:	2080020b 	ldhu	r2,8(r4)
 10854f0:	2884b03a 	or	r2,r5,r2
 10854f4:	94400117 	ldw	r17,4(r18)
 10854f8:	002d883a 	mov	r22,zero
 10854fc:	9080020d 	sth	r2,8(r18)
 1085500:	00003906 	br	10855e8 <OSFlagPost+0x194>
 1085504:	a801703a 	wrctl	status,r21
 1085508:	0007883a 	mov	r3,zero
 108550c:	00801c44 	movi	r2,113
 1085510:	003fe706 	br	10854b0 <OSFlagPost+0x5c>
 1085514:	8c000483 	ldbu	r16,18(r17)
 1085518:	04c00044 	movi	r19,1
 108551c:	84c01e26 	beq	r16,r19,1085598 <OSFlagPost+0x144>
 1085520:	84c01236 	bltu	r16,r19,108556c <OSFlagPost+0x118>
 1085524:	00800084 	movi	r2,2
 1085528:	80800326 	beq	r16,r2,1085538 <OSFlagPost+0xe4>
 108552c:	008000c4 	movi	r2,3
 1085530:	8080271e 	bne	r16,r2,10855d0 <OSFlagPost+0x17c>
 1085534:	00000706 	br	1085554 <OSFlagPost+0x100>
 1085538:	8880040b 	ldhu	r2,16(r17)
 108553c:	90c0020b 	ldhu	r3,8(r18)
 1085540:	1009883a 	mov	r4,r2
 1085544:	10c4703a 	and	r2,r2,r3
 1085548:	117fffcc 	andi	r5,r2,65535
 108554c:	2900251e 	bne	r5,r4,10855e4 <OSFlagPost+0x190>
 1085550:	00000c06 	br	1085584 <OSFlagPost+0x130>
 1085554:	9080020b 	ldhu	r2,8(r18)
 1085558:	88c0040b 	ldhu	r3,16(r17)
 108555c:	10c4703a 	and	r2,r2,r3
 1085560:	117fffcc 	andi	r5,r2,65535
 1085564:	28001f26 	beq	r5,zero,10855e4 <OSFlagPost+0x190>
 1085568:	00000606 	br	1085584 <OSFlagPost+0x130>
 108556c:	9080020b 	ldhu	r2,8(r18)
 1085570:	88c0040b 	ldhu	r3,16(r17)
 1085574:	0084303a 	nor	r2,zero,r2
 1085578:	10c4703a 	and	r2,r2,r3
 108557c:	117fffcc 	andi	r5,r2,65535
 1085580:	28c0181e 	bne	r5,r3,10855e4 <OSFlagPost+0x190>
 1085584:	8809883a 	mov	r4,r17
 1085588:	1084ae00 	call	1084ae0 <OS_FlagTaskRdy>
 108558c:	10803fcc 	andi	r2,r2,255
 1085590:	14c0141e 	bne	r2,r19,10855e4 <OSFlagPost+0x190>
 1085594:	00001206 	br	10855e0 <OSFlagPost+0x18c>
 1085598:	9080020b 	ldhu	r2,8(r18)
 108559c:	88c0040b 	ldhu	r3,16(r17)
 10855a0:	0084303a 	nor	r2,zero,r2
 10855a4:	10ca703a 	and	r5,r2,r3
 10855a8:	28bfffcc 	andi	r2,r5,65535
 10855ac:	10a0001c 	xori	r2,r2,32768
 10855b0:	10a00004 	addi	r2,r2,-32768
 10855b4:	10000b26 	beq	r2,zero,10855e4 <OSFlagPost+0x190>
 10855b8:	297fffcc 	andi	r5,r5,65535
 10855bc:	8809883a 	mov	r4,r17
 10855c0:	1084ae00 	call	1084ae0 <OS_FlagTaskRdy>
 10855c4:	10803fcc 	andi	r2,r2,255
 10855c8:	1400061e 	bne	r2,r16,10855e4 <OSFlagPost+0x190>
 10855cc:	00000406 	br	10855e0 <OSFlagPost+0x18c>
 10855d0:	a801703a 	wrctl	status,r21
 10855d4:	0007883a 	mov	r3,zero
 10855d8:	00801bc4 	movi	r2,111
 10855dc:	003fb406 	br	10854b0 <OSFlagPost+0x5c>
 10855e0:	05800044 	movi	r22,1
 10855e4:	8c400017 	ldw	r17,0(r17)
 10855e8:	883fca1e 	bne	r17,zero,1085514 <OSFlagPost+0xc0>
 10855ec:	a801703a 	wrctl	status,r21
 10855f0:	b0c03fcc 	andi	r3,r22,255
 10855f4:	00800044 	movi	r2,1
 10855f8:	1880011e 	bne	r3,r2,1085600 <OSFlagPost+0x1ac>
 10855fc:	1083cc80 	call	1083cc8 <OS_Sched>
 1085600:	0005303a 	rdctl	r2,status
 1085604:	00ffff84 	movi	r3,-2
 1085608:	10c6703a 	and	r3,r2,r3
 108560c:	1801703a 	wrctl	status,r3
 1085610:	90c0020b 	ldhu	r3,8(r18)
 1085614:	1001703a 	wrctl	status,r2
 1085618:	a0000005 	stb	zero,0(r20)
 108561c:	1805883a 	mov	r2,r3
 1085620:	dfc00717 	ldw	ra,28(sp)
 1085624:	dd800617 	ldw	r22,24(sp)
 1085628:	dd400517 	ldw	r21,20(sp)
 108562c:	dd000417 	ldw	r20,16(sp)
 1085630:	dcc00317 	ldw	r19,12(sp)
 1085634:	dc800217 	ldw	r18,8(sp)
 1085638:	dc400117 	ldw	r17,4(sp)
 108563c:	dc000017 	ldw	r16,0(sp)
 1085640:	dec00804 	addi	sp,sp,32
 1085644:	f800283a 	ret

01085648 <OS_MemInit>:
 1085648:	deffff04 	addi	sp,sp,-4
 108564c:	01430c04 	movi	r5,3120
 1085650:	01004274 	movhi	r4,265
 1085654:	21156a04 	addi	r4,r4,21928
 1085658:	dfc00015 	stw	ra,0(sp)
 108565c:	1083bb80 	call	1083bb8 <OS_MemClr>
 1085660:	00c04274 	movhi	r3,265
 1085664:	18d57704 	addi	r3,r3,21980
 1085668:	01400fc4 	movi	r5,63
 108566c:	1882ff04 	addi	r2,r3,3068
 1085670:	18fff415 	stw	r3,-48(r3)
 1085674:	197ff805 	stb	r5,-32(r3)
 1085678:	183ff845 	stb	zero,-31(r3)
 108567c:	18c00d04 	addi	r3,r3,52
 1085680:	18bffb1e 	bne	r3,r2,1085670 <OS_MemInit+0x28>
 1085684:	193cf404 	addi	r4,r3,-3120
 1085688:	00804274 	movhi	r2,265
 108568c:	10bb9f04 	addi	r2,r2,-4484
 1085690:	18fff304 	addi	r3,r3,-52
 1085694:	11000015 	stw	r4,0(r2)
 1085698:	19400505 	stb	r5,20(r3)
 108569c:	18000545 	stb	zero,21(r3)
 10856a0:	18000115 	stw	zero,4(r3)
 10856a4:	dfc00017 	ldw	ra,0(sp)
 10856a8:	dec00104 	addi	sp,sp,4
 10856ac:	f800283a 	ret

010856b0 <OSMemQuery>:
 10856b0:	200f883a 	mov	r7,r4
 10856b4:	00801804 	movi	r2,96
 10856b8:	280d883a 	mov	r6,r5
 10856bc:	20001426 	beq	r4,zero,1085710 <OSMemQuery+0x60>
 10856c0:	00801844 	movi	r2,97
 10856c4:	28001226 	beq	r5,zero,1085710 <OSMemQuery+0x60>
 10856c8:	000b303a 	rdctl	r5,status
 10856cc:	00bfff84 	movi	r2,-2
 10856d0:	2884703a 	and	r2,r5,r2
 10856d4:	1001703a 	wrctl	status,r2
 10856d8:	20800217 	ldw	r2,8(r4)
 10856dc:	20c00017 	ldw	r3,0(r4)
 10856e0:	30800215 	stw	r2,8(r6)
 10856e4:	20800317 	ldw	r2,12(r4)
 10856e8:	30c00015 	stw	r3,0(r6)
 10856ec:	21000117 	ldw	r4,4(r4)
 10856f0:	30800315 	stw	r2,12(r6)
 10856f4:	38c00417 	ldw	r3,16(r7)
 10856f8:	31000115 	stw	r4,4(r6)
 10856fc:	30c00415 	stw	r3,16(r6)
 1085700:	2801703a 	wrctl	status,r5
 1085704:	10c5c83a 	sub	r2,r2,r3
 1085708:	30800515 	stw	r2,20(r6)
 108570c:	0005883a 	mov	r2,zero
 1085710:	f800283a 	ret

01085714 <OSMemCreate>:
 1085714:	3800021e 	bne	r7,zero,1085720 <OSMemCreate+0xc>
 1085718:	0015883a 	mov	r10,zero
 108571c:	00002f06 	br	10857dc <OSMemCreate+0xc8>
 1085720:	20000226 	beq	r4,zero,108572c <OSMemCreate+0x18>
 1085724:	208000cc 	andi	r2,r4,3
 1085728:	10000326 	beq	r2,zero,1085738 <OSMemCreate+0x24>
 108572c:	0015883a 	mov	r10,zero
 1085730:	00801884 	movi	r2,98
 1085734:	00001b06 	br	10857a4 <OSMemCreate+0x90>
 1085738:	02400044 	movi	r9,1
 108573c:	49400336 	bltu	r9,r5,108574c <OSMemCreate+0x38>
 1085740:	0015883a 	mov	r10,zero
 1085744:	008016c4 	movi	r2,91
 1085748:	00001606 	br	10857a4 <OSMemCreate+0x90>
 108574c:	008000c4 	movi	r2,3
 1085750:	11800336 	bltu	r2,r6,1085760 <OSMemCreate+0x4c>
 1085754:	0015883a 	mov	r10,zero
 1085758:	00801704 	movi	r2,92
 108575c:	00001106 	br	10857a4 <OSMemCreate+0x90>
 1085760:	0007303a 	rdctl	r3,status
 1085764:	00bfff84 	movi	r2,-2
 1085768:	1884703a 	and	r2,r3,r2
 108576c:	1001703a 	wrctl	status,r2
 1085770:	02004274 	movhi	r8,265
 1085774:	423b9f04 	addi	r8,r8,-4484
 1085778:	42800017 	ldw	r10,0(r8)
 108577c:	50000726 	beq	r10,zero,108579c <OSMemCreate+0x88>
 1085780:	50800117 	ldw	r2,4(r10)
 1085784:	40800015 	stw	r2,0(r8)
 1085788:	1801703a 	wrctl	status,r3
 108578c:	4811883a 	mov	r8,r9
 1085790:	2005883a 	mov	r2,r4
 1085794:	2187883a 	add	r3,r4,r6
 1085798:	00000406 	br	10857ac <OSMemCreate+0x98>
 108579c:	1801703a 	wrctl	status,r3
 10857a0:	00801684 	movi	r2,90
 10857a4:	38800005 	stb	r2,0(r7)
 10857a8:	00000c06 	br	10857dc <OSMemCreate+0xc8>
 10857ac:	42000044 	addi	r8,r8,1
 10857b0:	10c00015 	stw	r3,0(r2)
 10857b4:	1805883a 	mov	r2,r3
 10857b8:	1987883a 	add	r3,r3,r6
 10857bc:	417ffb1e 	bne	r8,r5,10857ac <OSMemCreate+0x98>
 10857c0:	10000015 	stw	zero,0(r2)
 10857c4:	51000115 	stw	r4,4(r10)
 10857c8:	51400315 	stw	r5,12(r10)
 10857cc:	51800215 	stw	r6,8(r10)
 10857d0:	51000015 	stw	r4,0(r10)
 10857d4:	51400415 	stw	r5,16(r10)
 10857d8:	38000005 	stb	zero,0(r7)
 10857dc:	5005883a 	mov	r2,r10
 10857e0:	f800283a 	ret

010857e4 <OSMemGet>:
 10857e4:	000f883a 	mov	r7,zero
 10857e8:	28001726 	beq	r5,zero,1085848 <OSMemGet+0x64>
 10857ec:	000f883a 	mov	r7,zero
 10857f0:	2000031e 	bne	r4,zero,1085800 <OSMemGet+0x1c>
 10857f4:	00801804 	movi	r2,96
 10857f8:	28800005 	stb	r2,0(r5)
 10857fc:	00001206 	br	1085848 <OSMemGet+0x64>
 1085800:	000d303a 	rdctl	r6,status
 1085804:	00bfff84 	movi	r2,-2
 1085808:	3084703a 	and	r2,r6,r2
 108580c:	1001703a 	wrctl	status,r2
 1085810:	20800417 	ldw	r2,16(r4)
 1085814:	10ffffc4 	addi	r3,r2,-1
 1085818:	10000726 	beq	r2,zero,1085838 <OSMemGet+0x54>
 108581c:	21c00117 	ldw	r7,4(r4)
 1085820:	20c00415 	stw	r3,16(r4)
 1085824:	38800017 	ldw	r2,0(r7)
 1085828:	20800115 	stw	r2,4(r4)
 108582c:	3001703a 	wrctl	status,r6
 1085830:	28000005 	stb	zero,0(r5)
 1085834:	00000406 	br	1085848 <OSMemGet+0x64>
 1085838:	3001703a 	wrctl	status,r6
 108583c:	00801744 	movi	r2,93
 1085840:	28800005 	stb	r2,0(r5)
 1085844:	000f883a 	mov	r7,zero
 1085848:	3805883a 	mov	r2,r7
 108584c:	f800283a 	ret

01085850 <OSMemNameGet>:
 1085850:	defffd04 	addi	sp,sp,-12
 1085854:	dfc00215 	stw	ra,8(sp)
 1085858:	dc000115 	stw	r16,4(sp)
 108585c:	000f883a 	mov	r7,zero
 1085860:	2007883a 	mov	r3,r4
 1085864:	30001c26 	beq	r6,zero,10858d8 <OSMemNameGet+0x88>
 1085868:	000f883a 	mov	r7,zero
 108586c:	2000021e 	bne	r4,zero,1085878 <OSMemNameGet+0x28>
 1085870:	00801804 	movi	r2,96
 1085874:	00000306 	br	1085884 <OSMemNameGet+0x34>
 1085878:	000f883a 	mov	r7,zero
 108587c:	2800031e 	bne	r5,zero,108588c <OSMemNameGet+0x3c>
 1085880:	00800304 	movi	r2,12
 1085884:	30800005 	stb	r2,0(r6)
 1085888:	00001306 	br	10858d8 <OSMemNameGet+0x88>
 108588c:	00804274 	movhi	r2,265
 1085890:	10bba404 	addi	r2,r2,-4464
 1085894:	10800003 	ldbu	r2,0(r2)
 1085898:	000f883a 	mov	r7,zero
 108589c:	10000226 	beq	r2,zero,10858a8 <OSMemNameGet+0x58>
 10858a0:	00800444 	movi	r2,17
 10858a4:	003ff706 	br	1085884 <OSMemNameGet+0x34>
 10858a8:	0021303a 	rdctl	r16,status
 10858ac:	00bfff84 	movi	r2,-2
 10858b0:	8084703a 	and	r2,r16,r2
 10858b4:	1001703a 	wrctl	status,r2
 10858b8:	2809883a 	mov	r4,r5
 10858bc:	19400504 	addi	r5,r3,20
 10858c0:	d9800015 	stw	r6,0(sp)
 10858c4:	1083bf80 	call	1083bf8 <OS_StrCopy>
 10858c8:	8001703a 	wrctl	status,r16
 10858cc:	d9800017 	ldw	r6,0(sp)
 10858d0:	11c03fcc 	andi	r7,r2,255
 10858d4:	30000005 	stb	zero,0(r6)
 10858d8:	3805883a 	mov	r2,r7
 10858dc:	dfc00217 	ldw	ra,8(sp)
 10858e0:	dc000117 	ldw	r16,4(sp)
 10858e4:	dec00304 	addi	sp,sp,12
 10858e8:	f800283a 	ret

010858ec <OSMemNameSet>:
 10858ec:	defffb04 	addi	sp,sp,-20
 10858f0:	dcc00315 	stw	r19,12(sp)
 10858f4:	dc400115 	stw	r17,4(sp)
 10858f8:	dc000015 	stw	r16,0(sp)
 10858fc:	dfc00415 	stw	ra,16(sp)
 1085900:	dc800215 	stw	r18,8(sp)
 1085904:	3023883a 	mov	r17,r6
 1085908:	2027883a 	mov	r19,r4
 108590c:	2821883a 	mov	r16,r5
 1085910:	30001e26 	beq	r6,zero,108598c <OSMemNameSet+0xa0>
 1085914:	2000021e 	bne	r4,zero,1085920 <OSMemNameSet+0x34>
 1085918:	00801804 	movi	r2,96
 108591c:	00000206 	br	1085928 <OSMemNameSet+0x3c>
 1085920:	2800031e 	bne	r5,zero,1085930 <OSMemNameSet+0x44>
 1085924:	00800304 	movi	r2,12
 1085928:	88800005 	stb	r2,0(r17)
 108592c:	00001706 	br	108598c <OSMemNameSet+0xa0>
 1085930:	00804274 	movhi	r2,265
 1085934:	10bba404 	addi	r2,r2,-4464
 1085938:	10800003 	ldbu	r2,0(r2)
 108593c:	10000226 	beq	r2,zero,1085948 <OSMemNameSet+0x5c>
 1085940:	00800484 	movi	r2,18
 1085944:	003ff806 	br	1085928 <OSMemNameSet+0x3c>
 1085948:	0025303a 	rdctl	r18,status
 108594c:	00bfff84 	movi	r2,-2
 1085950:	9084703a 	and	r2,r18,r2
 1085954:	1001703a 	wrctl	status,r2
 1085958:	2809883a 	mov	r4,r5
 108595c:	1083c240 	call	1083c24 <OS_StrLen>
 1085960:	10803fcc 	andi	r2,r2,255
 1085964:	00c007c4 	movi	r3,31
 1085968:	1880032e 	bgeu	r3,r2,1085978 <OSMemNameSet+0x8c>
 108596c:	9001703a 	wrctl	status,r18
 1085970:	008018c4 	movi	r2,99
 1085974:	003fec06 	br	1085928 <OSMemNameSet+0x3c>
 1085978:	99000504 	addi	r4,r19,20
 108597c:	800b883a 	mov	r5,r16
 1085980:	1083bf80 	call	1083bf8 <OS_StrCopy>
 1085984:	9001703a 	wrctl	status,r18
 1085988:	88000005 	stb	zero,0(r17)
 108598c:	dfc00417 	ldw	ra,16(sp)
 1085990:	dcc00317 	ldw	r19,12(sp)
 1085994:	dc800217 	ldw	r18,8(sp)
 1085998:	dc400117 	ldw	r17,4(sp)
 108599c:	dc000017 	ldw	r16,0(sp)
 10859a0:	dec00504 	addi	sp,sp,20
 10859a4:	f800283a 	ret

010859a8 <OSMemPut>:
 10859a8:	00801804 	movi	r2,96
 10859ac:	20001326 	beq	r4,zero,10859fc <OSMemPut+0x54>
 10859b0:	008017c4 	movi	r2,95
 10859b4:	28001126 	beq	r5,zero,10859fc <OSMemPut+0x54>
 10859b8:	000f303a 	rdctl	r7,status
 10859bc:	00bfff84 	movi	r2,-2
 10859c0:	3884703a 	and	r2,r7,r2
 10859c4:	1001703a 	wrctl	status,r2
 10859c8:	20800417 	ldw	r2,16(r4)
 10859cc:	20c00317 	ldw	r3,12(r4)
 10859d0:	11800044 	addi	r6,r2,1
 10859d4:	10c00336 	bltu	r2,r3,10859e4 <OSMemPut+0x3c>
 10859d8:	3801703a 	wrctl	status,r7
 10859dc:	00801784 	movi	r2,94
 10859e0:	f800283a 	ret
 10859e4:	20800117 	ldw	r2,4(r4)
 10859e8:	21800415 	stw	r6,16(r4)
 10859ec:	28800015 	stw	r2,0(r5)
 10859f0:	21400115 	stw	r5,4(r4)
 10859f4:	3801703a 	wrctl	status,r7
 10859f8:	0005883a 	mov	r2,zero
 10859fc:	f800283a 	ret

01085a00 <OS_QInit>:
 1085a00:	deffff04 	addi	sp,sp,-4
 1085a04:	01004274 	movhi	r4,265
 1085a08:	211a7604 	addi	r4,r4,27096
 1085a0c:	01407804 	movi	r5,480
 1085a10:	dfc00015 	stw	ra,0(sp)
 1085a14:	1083bb80 	call	1083bb8 <OS_MemClr>
 1085a18:	01004274 	movhi	r4,265
 1085a1c:	211a7c04 	addi	r4,r4,27120
 1085a20:	20807204 	addi	r2,r4,456
 1085a24:	213ffa15 	stw	r4,-24(r4)
 1085a28:	21000604 	addi	r4,r4,24
 1085a2c:	20bffd1e 	bne	r4,r2,1085a24 <OS_QInit+0x24>
 1085a30:	20ff8804 	addi	r3,r4,-480
 1085a34:	00804274 	movhi	r2,265
 1085a38:	10bba104 	addi	r2,r2,-4476
 1085a3c:	10c00015 	stw	r3,0(r2)
 1085a40:	203ffa15 	stw	zero,-24(r4)
 1085a44:	dfc00017 	ldw	ra,0(sp)
 1085a48:	dec00104 	addi	sp,sp,4
 1085a4c:	f800283a 	ret

01085a50 <OSQQuery>:
 1085a50:	2000021e 	bne	r4,zero,1085a5c <OSQQuery+0xc>
 1085a54:	00800104 	movi	r2,4
 1085a58:	f800283a 	ret
 1085a5c:	2800021e 	bne	r5,zero,1085a68 <OSQQuery+0x18>
 1085a60:	00800244 	movi	r2,9
 1085a64:	f800283a 	ret
 1085a68:	20c00003 	ldbu	r3,0(r4)
 1085a6c:	00800084 	movi	r2,2
 1085a70:	18800226 	beq	r3,r2,1085a7c <OSQQuery+0x2c>
 1085a74:	00800044 	movi	r2,1
 1085a78:	f800283a 	ret
 1085a7c:	0007303a 	rdctl	r3,status
 1085a80:	00bfff84 	movi	r2,-2
 1085a84:	1884703a 	and	r2,r3,r2
 1085a88:	1001703a 	wrctl	status,r2
 1085a8c:	20800283 	ldbu	r2,10(r4)
 1085a90:	288002c5 	stb	r2,11(r5)
 1085a94:	208002c3 	ldbu	r2,11(r4)
 1085a98:	28800205 	stb	r2,8(r5)
 1085a9c:	20800303 	ldbu	r2,12(r4)
 1085aa0:	28800245 	stb	r2,9(r5)
 1085aa4:	20800343 	ldbu	r2,13(r4)
 1085aa8:	28800285 	stb	r2,10(r5)
 1085aac:	21000117 	ldw	r4,4(r4)
 1085ab0:	2080058b 	ldhu	r2,22(r4)
 1085ab4:	10000426 	beq	r2,zero,1085ac8 <OSQQuery+0x78>
 1085ab8:	20800417 	ldw	r2,16(r4)
 1085abc:	10800017 	ldw	r2,0(r2)
 1085ac0:	28800015 	stw	r2,0(r5)
 1085ac4:	00000106 	br	1085acc <OSQQuery+0x7c>
 1085ac8:	28000015 	stw	zero,0(r5)
 1085acc:	2080058b 	ldhu	r2,22(r4)
 1085ad0:	2880010d 	sth	r2,4(r5)
 1085ad4:	2080050b 	ldhu	r2,20(r4)
 1085ad8:	2880018d 	sth	r2,6(r5)
 1085adc:	1801703a 	wrctl	status,r3
 1085ae0:	0005883a 	mov	r2,zero
 1085ae4:	f800283a 	ret

01085ae8 <OSQAccept>:
 1085ae8:	280f883a 	mov	r7,r5
 1085aec:	2800021e 	bne	r5,zero,1085af8 <OSQAccept+0x10>
 1085af0:	0009883a 	mov	r4,zero
 1085af4:	00002106 	br	1085b7c <OSQAccept+0x94>
 1085af8:	2000021e 	bne	r4,zero,1085b04 <OSQAccept+0x1c>
 1085afc:	00800104 	movi	r2,4
 1085b00:	00000506 	br	1085b18 <OSQAccept+0x30>
 1085b04:	20c00003 	ldbu	r3,0(r4)
 1085b08:	00800084 	movi	r2,2
 1085b0c:	18800426 	beq	r3,r2,1085b20 <OSQAccept+0x38>
 1085b10:	0009883a 	mov	r4,zero
 1085b14:	00800044 	movi	r2,1
 1085b18:	38800005 	stb	r2,0(r7)
 1085b1c:	00001706 	br	1085b7c <OSQAccept+0x94>
 1085b20:	0011303a 	rdctl	r8,status
 1085b24:	00bfff84 	movi	r2,-2
 1085b28:	4084703a 	and	r2,r8,r2
 1085b2c:	1001703a 	wrctl	status,r2
 1085b30:	21800117 	ldw	r6,4(r4)
 1085b34:	3080058b 	ldhu	r2,22(r6)
 1085b38:	10000c26 	beq	r2,zero,1085b6c <OSQAccept+0x84>
 1085b3c:	31000417 	ldw	r4,16(r6)
 1085b40:	31400217 	ldw	r5,8(r6)
 1085b44:	10bfffc4 	addi	r2,r2,-1
 1085b48:	20c00104 	addi	r3,r4,4
 1085b4c:	3080058d 	sth	r2,22(r6)
 1085b50:	30c00415 	stw	r3,16(r6)
 1085b54:	21000017 	ldw	r4,0(r4)
 1085b58:	1940021e 	bne	r3,r5,1085b64 <OSQAccept+0x7c>
 1085b5c:	30800117 	ldw	r2,4(r6)
 1085b60:	30800415 	stw	r2,16(r6)
 1085b64:	38000005 	stb	zero,0(r7)
 1085b68:	00000306 	br	1085b78 <OSQAccept+0x90>
 1085b6c:	008007c4 	movi	r2,31
 1085b70:	28800005 	stb	r2,0(r5)
 1085b74:	0009883a 	mov	r4,zero
 1085b78:	4001703a 	wrctl	status,r8
 1085b7c:	2005883a 	mov	r2,r4
 1085b80:	f800283a 	ret

01085b84 <OSQCreate>:
 1085b84:	defffe04 	addi	sp,sp,-8
